
build/digital_clock_test:     file format elf32-littleriscv


Disassembly of section .init:

00000000 <_start>:
   0:	01001197          	auipc	gp,0x1001
   4:	99818193          	addi	gp,gp,-1640 # 1000998 <__global_pointer$>
   8:	01004117          	auipc	sp,0x1004
   c:	ff810113          	addi	sp,sp,-8 # 1004000 <__freertos_irq_stack_top>
  10:	00001517          	auipc	a0,0x1
  14:	52850513          	addi	a0,a0,1320 # 1538 <_data_lma>
  18:	01000597          	auipc	a1,0x1000
  1c:	fe858593          	addi	a1,a1,-24 # 1000000 <_data>
  20:	80818613          	addi	a2,gp,-2040 # 10001a0 <__bss_start>
  24:	00c5fc63          	bgeu	a1,a2,3c <_start+0x3c>
  28:	00052283          	lw	t0,0(a0)
  2c:	0055a023          	sw	t0,0(a1)
  30:	00450513          	addi	a0,a0,4
  34:	00458593          	addi	a1,a1,4
  38:	fec5e8e3          	bltu	a1,a2,28 <_start+0x28>
  3c:	80818513          	addi	a0,gp,-2040 # 10001a0 <__bss_start>
  40:	82818593          	addi	a1,gp,-2008 # 10001c0 <_end>
  44:	00b57863          	bgeu	a0,a1,54 <_start+0x54>
  48:	00052023          	sw	zero,0(a0)
  4c:	00450513          	addi	a0,a0,4
  50:	feb56ce3          	bltu	a0,a1,48 <_start+0x48>
  54:	00000517          	auipc	a0,0x0
  58:	01450513          	addi	a0,a0,20 # 68 <trap_entry>
  5c:	30551073          	csrw	mtvec,a0
  60:	130000ef          	jal	ra,190 <main>

00000064 <loop>:
  64:	0000006f          	j	64 <loop>

Disassembly of section .text:

00000068 <trap_entry>:
      68:	f8010113          	addi	sp,sp,-128
      6c:	00112223          	sw	ra,4(sp)
      70:	00212423          	sw	sp,8(sp)
      74:	00312623          	sw	gp,12(sp)
      78:	00412823          	sw	tp,16(sp)
      7c:	00512a23          	sw	t0,20(sp)
      80:	00612c23          	sw	t1,24(sp)
      84:	00712e23          	sw	t2,28(sp)
      88:	02812023          	sw	s0,32(sp)
      8c:	02912223          	sw	s1,36(sp)
      90:	02a12423          	sw	a0,40(sp)
      94:	02b12623          	sw	a1,44(sp)
      98:	02c12823          	sw	a2,48(sp)
      9c:	02d12a23          	sw	a3,52(sp)
      a0:	02e12c23          	sw	a4,56(sp)
      a4:	02f12e23          	sw	a5,60(sp)
      a8:	05012023          	sw	a6,64(sp)
      ac:	05112223          	sw	a7,68(sp)
      b0:	05212423          	sw	s2,72(sp)
      b4:	05312623          	sw	s3,76(sp)
      b8:	05412823          	sw	s4,80(sp)
      bc:	05512a23          	sw	s5,84(sp)
      c0:	05612c23          	sw	s6,88(sp)
      c4:	05712e23          	sw	s7,92(sp)
      c8:	07812023          	sw	s8,96(sp)
      cc:	07912223          	sw	s9,100(sp)
      d0:	07a12423          	sw	s10,104(sp)
      d4:	07b12623          	sw	s11,108(sp)
      d8:	07c12823          	sw	t3,112(sp)
      dc:	07d12a23          	sw	t4,116(sp)
      e0:	07e12c23          	sw	t5,120(sp)
      e4:	07f12e23          	sw	t6,124(sp)
      e8:	34202573          	csrr	a0,mcause
      ec:	341025f3          	csrr	a1,mepc

000000f0 <test_if_asynchronous>:
      f0:	01f55613          	srli	a2,a0,0x1f
      f4:	00060663          	beqz	a2,100 <handle_synchronous>
      f8:	74c000ef          	jal	ra,844 <trap_handler>
      fc:	00c0006f          	j	108 <asynchronous_return>

00000100 <handle_synchronous>:
     100:	00458593          	addi	a1,a1,4
     104:	34159073          	csrw	mepc,a1

00000108 <asynchronous_return>:
     108:	00412083          	lw	ra,4(sp)
     10c:	00812103          	lw	sp,8(sp)
     110:	00c12183          	lw	gp,12(sp)
     114:	01012203          	lw	tp,16(sp)
     118:	01412283          	lw	t0,20(sp)
     11c:	01812303          	lw	t1,24(sp)
     120:	01c12383          	lw	t2,28(sp)
     124:	02012403          	lw	s0,32(sp)
     128:	02412483          	lw	s1,36(sp)
     12c:	02812503          	lw	a0,40(sp)
     130:	02c12583          	lw	a1,44(sp)
     134:	03012603          	lw	a2,48(sp)
     138:	03412683          	lw	a3,52(sp)
     13c:	03812703          	lw	a4,56(sp)
     140:	03c12783          	lw	a5,60(sp)
     144:	04012803          	lw	a6,64(sp)
     148:	04412883          	lw	a7,68(sp)
     14c:	04812903          	lw	s2,72(sp)
     150:	04c12983          	lw	s3,76(sp)
     154:	05012a03          	lw	s4,80(sp)
     158:	05412a83          	lw	s5,84(sp)
     15c:	05812b03          	lw	s6,88(sp)
     160:	05c12b83          	lw	s7,92(sp)
     164:	06012c03          	lw	s8,96(sp)
     168:	06412c83          	lw	s9,100(sp)
     16c:	06812d03          	lw	s10,104(sp)
     170:	06c12d83          	lw	s11,108(sp)
     174:	07012e03          	lw	t3,112(sp)
     178:	07412e83          	lw	t4,116(sp)
     17c:	07812f03          	lw	t5,120(sp)
     180:	07c12f83          	lw	t6,124(sp)
     184:	08010113          	addi	sp,sp,128
     188:	30200073          	mret
     18c:	0000006f          	j	18c <asynchronous_return+0x84>

00000190 <main>:
     190:	ff010113          	addi	sp,sp,-16
     194:	00112623          	sw	ra,12(sp)
     198:	00812423          	sw	s0,8(sp)
     19c:	01010413          	addi	s0,sp,16
     1a0:	1f5000ef          	jal	ra,b94 <digital_clock_init>
     1a4:	285000ef          	jal	ra,c28 <refresh_time>
     1a8:	2b1000ef          	jal	ra,c58 <check_alarm>
     1ac:	8181a783          	lw	a5,-2024(gp) # 10001b0 <g_main_status>
     1b0:	00079a63          	bnez	a5,1c4 <main+0x34>
     1b4:	2f9000ef          	jal	ra,cac <seg_show_cur_time>
     1b8:	00000513          	li	a0,0
     1bc:	68d000ef          	jal	ra,1048 <button_action>
     1c0:	fe5ff06f          	j	1a4 <main+0x14>
     1c4:	8181a703          	lw	a4,-2024(gp) # 10001b0 <g_main_status>
     1c8:	00100793          	li	a5,1
     1cc:	00f71a63          	bne	a4,a5,1e0 <main+0x50>
     1d0:	411000ef          	jal	ra,de0 <seg_show_tar_time>
     1d4:	00100513          	li	a0,1
     1d8:	671000ef          	jal	ra,1048 <button_action>
     1dc:	fc9ff06f          	j	1a4 <main+0x14>
     1e0:	8181a703          	lw	a4,-2024(gp) # 10001b0 <g_main_status>
     1e4:	00200793          	li	a5,2
     1e8:	faf71ee3          	bne	a4,a5,1a4 <main+0x14>
     1ec:	529000ef          	jal	ra,f14 <seg_show_alarm_time>
     1f0:	00200513          	li	a0,2
     1f4:	655000ef          	jal	ra,1048 <button_action>
     1f8:	fadff06f          	j	1a4 <main+0x14>

000001fc <uart_putc>:
     1fc:	fe010113          	addi	sp,sp,-32
     200:	00812e23          	sw	s0,28(sp)
     204:	02010413          	addi	s0,sp,32
     208:	00050793          	mv	a5,a0
     20c:	fef407a3          	sb	a5,-17(s0)
     210:	00000013          	nop
     214:	020007b7          	lui	a5,0x2000
     218:	00478793          	addi	a5,a5,4 # 2000004 <__freertos_irq_stack_top+0xffc004>
     21c:	0007a783          	lw	a5,0(a5)
     220:	0017f793          	andi	a5,a5,1
     224:	fe0798e3          	bnez	a5,214 <uart_putc+0x18>
     228:	020007b7          	lui	a5,0x2000
     22c:	00c78793          	addi	a5,a5,12 # 200000c <__freertos_irq_stack_top+0xffc00c>
     230:	fef44703          	lbu	a4,-17(s0)
     234:	00e7a023          	sw	a4,0(a5)
     238:	00000013          	nop
     23c:	01c12403          	lw	s0,28(sp)
     240:	02010113          	addi	sp,sp,32
     244:	00008067          	ret

00000248 <uart_init>:
     248:	ff010113          	addi	sp,sp,-16
     24c:	00812623          	sw	s0,12(sp)
     250:	01010413          	addi	s0,sp,16
     254:	020007b7          	lui	a5,0x2000
     258:	00300713          	li	a4,3
     25c:	00e7a023          	sw	a4,0(a5) # 2000000 <__freertos_irq_stack_top+0xffc000>
     260:	00000737          	lui	a4,0x0
     264:	1fc70713          	addi	a4,a4,508 # 1fc <uart_putc>
     268:	80e1a623          	sw	a4,-2036(gp) # 10001a4 <xfunc_out>
     26c:	00000013          	nop
     270:	00c12403          	lw	s0,12(sp)
     274:	01010113          	addi	sp,sp,16
     278:	00008067          	ret

0000027c <xputc>:
     27c:	fe010113          	addi	sp,sp,-32
     280:	00112e23          	sw	ra,28(sp)
     284:	00812c23          	sw	s0,24(sp)
     288:	02010413          	addi	s0,sp,32
     28c:	00050793          	mv	a5,a0
     290:	fef407a3          	sb	a5,-17(s0)
     294:	fef44703          	lbu	a4,-17(s0)
     298:	00a00793          	li	a5,10
     29c:	00f71663          	bne	a4,a5,2a8 <xputc+0x2c>
     2a0:	00d00513          	li	a0,13
     2a4:	fd9ff0ef          	jal	ra,27c <xputc>
     2a8:	010007b7          	lui	a5,0x1000
     2ac:	1a07a783          	lw	a5,416(a5) # 10001a0 <__bss_start>
     2b0:	02078263          	beqz	a5,2d4 <xputc+0x58>
     2b4:	010007b7          	lui	a5,0x1000
     2b8:	1a07a783          	lw	a5,416(a5) # 10001a0 <__bss_start>
     2bc:	00178693          	addi	a3,a5,1
     2c0:	01000737          	lui	a4,0x1000
     2c4:	1ad72023          	sw	a3,416(a4) # 10001a0 <__bss_start>
     2c8:	fef44703          	lbu	a4,-17(s0)
     2cc:	00e78023          	sb	a4,0(a5)
     2d0:	01c0006f          	j	2ec <xputc+0x70>
     2d4:	80c1a783          	lw	a5,-2036(gp) # 10001a4 <xfunc_out>
     2d8:	00078a63          	beqz	a5,2ec <xputc+0x70>
     2dc:	80c1a703          	lw	a4,-2036(gp) # 10001a4 <xfunc_out>
     2e0:	fef44783          	lbu	a5,-17(s0)
     2e4:	00078513          	mv	a0,a5
     2e8:	000700e7          	jalr	a4
     2ec:	01c12083          	lw	ra,28(sp)
     2f0:	01812403          	lw	s0,24(sp)
     2f4:	02010113          	addi	sp,sp,32
     2f8:	00008067          	ret

000002fc <xputs>:
     2fc:	fe010113          	addi	sp,sp,-32
     300:	00112e23          	sw	ra,28(sp)
     304:	00812c23          	sw	s0,24(sp)
     308:	02010413          	addi	s0,sp,32
     30c:	fea42623          	sw	a0,-20(s0)
     310:	01c0006f          	j	32c <xputs+0x30>
     314:	fec42783          	lw	a5,-20(s0)
     318:	00178713          	addi	a4,a5,1
     31c:	fee42623          	sw	a4,-20(s0)
     320:	0007c783          	lbu	a5,0(a5)
     324:	00078513          	mv	a0,a5
     328:	f55ff0ef          	jal	ra,27c <xputc>
     32c:	fec42783          	lw	a5,-20(s0)
     330:	0007c783          	lbu	a5,0(a5)
     334:	fe0790e3          	bnez	a5,314 <xputs+0x18>
     338:	00000013          	nop
     33c:	01c12083          	lw	ra,28(sp)
     340:	01812403          	lw	s0,24(sp)
     344:	02010113          	addi	sp,sp,32
     348:	00008067          	ret

0000034c <xvprintf>:
     34c:	fb010113          	addi	sp,sp,-80
     350:	04112623          	sw	ra,76(sp)
     354:	04812423          	sw	s0,72(sp)
     358:	05010413          	addi	s0,sp,80
     35c:	faa42e23          	sw	a0,-68(s0)
     360:	fab42c23          	sw	a1,-72(s0)
     364:	fbc42783          	lw	a5,-68(s0)
     368:	00178713          	addi	a4,a5,1
     36c:	fae42e23          	sw	a4,-68(s0)
     370:	0007c783          	lbu	a5,0(a5)
     374:	fcf40ba3          	sb	a5,-41(s0)
     378:	fd744783          	lbu	a5,-41(s0)
     37c:	44078463          	beqz	a5,7c4 <xvprintf+0x478>
     380:	fd744703          	lbu	a4,-41(s0)
     384:	02500793          	li	a5,37
     388:	00f70a63          	beq	a4,a5,39c <xvprintf+0x50>
     38c:	fd744783          	lbu	a5,-41(s0)
     390:	00078513          	mv	a0,a5
     394:	ee9ff0ef          	jal	ra,27c <xputc>
     398:	4280006f          	j	7c0 <xvprintf+0x474>
     39c:	fc042e23          	sw	zero,-36(s0)
     3a0:	fbc42783          	lw	a5,-68(s0)
     3a4:	00178713          	addi	a4,a5,1
     3a8:	fae42e23          	sw	a4,-68(s0)
     3ac:	0007c783          	lbu	a5,0(a5)
     3b0:	fcf40ba3          	sb	a5,-41(s0)
     3b4:	fd744703          	lbu	a4,-41(s0)
     3b8:	03000793          	li	a5,48
     3bc:	02f71263          	bne	a4,a5,3e0 <xvprintf+0x94>
     3c0:	00100793          	li	a5,1
     3c4:	fcf42e23          	sw	a5,-36(s0)
     3c8:	fbc42783          	lw	a5,-68(s0)
     3cc:	00178713          	addi	a4,a5,1
     3d0:	fae42e23          	sw	a4,-68(s0)
     3d4:	0007c783          	lbu	a5,0(a5)
     3d8:	fcf40ba3          	sb	a5,-41(s0)
     3dc:	02c0006f          	j	408 <xvprintf+0xbc>
     3e0:	fd744703          	lbu	a4,-41(s0)
     3e4:	02d00793          	li	a5,45
     3e8:	02f71063          	bne	a4,a5,408 <xvprintf+0xbc>
     3ec:	00200793          	li	a5,2
     3f0:	fcf42e23          	sw	a5,-36(s0)
     3f4:	fbc42783          	lw	a5,-68(s0)
     3f8:	00178713          	addi	a4,a5,1
     3fc:	fae42e23          	sw	a4,-68(s0)
     400:	0007c783          	lbu	a5,0(a5)
     404:	fcf40ba3          	sb	a5,-41(s0)
     408:	fe042023          	sw	zero,-32(s0)
     40c:	0400006f          	j	44c <xvprintf+0x100>
     410:	fe042703          	lw	a4,-32(s0)
     414:	00070793          	mv	a5,a4
     418:	00279793          	slli	a5,a5,0x2
     41c:	00e787b3          	add	a5,a5,a4
     420:	00179793          	slli	a5,a5,0x1
     424:	00078713          	mv	a4,a5
     428:	fd744783          	lbu	a5,-41(s0)
     42c:	00f707b3          	add	a5,a4,a5
     430:	fd078793          	addi	a5,a5,-48
     434:	fef42023          	sw	a5,-32(s0)
     438:	fbc42783          	lw	a5,-68(s0)
     43c:	00178713          	addi	a4,a5,1
     440:	fae42e23          	sw	a4,-68(s0)
     444:	0007c783          	lbu	a5,0(a5)
     448:	fcf40ba3          	sb	a5,-41(s0)
     44c:	fd744703          	lbu	a4,-41(s0)
     450:	02f00793          	li	a5,47
     454:	00e7f863          	bgeu	a5,a4,464 <xvprintf+0x118>
     458:	fd744703          	lbu	a4,-41(s0)
     45c:	03900793          	li	a5,57
     460:	fae7f8e3          	bgeu	a5,a4,410 <xvprintf+0xc4>
     464:	fd744703          	lbu	a4,-41(s0)
     468:	06c00793          	li	a5,108
     46c:	00f70863          	beq	a4,a5,47c <xvprintf+0x130>
     470:	fd744703          	lbu	a4,-41(s0)
     474:	04c00793          	li	a5,76
     478:	02f71263          	bne	a4,a5,49c <xvprintf+0x150>
     47c:	fdc42783          	lw	a5,-36(s0)
     480:	0047e793          	ori	a5,a5,4
     484:	fcf42e23          	sw	a5,-36(s0)
     488:	fbc42783          	lw	a5,-68(s0)
     48c:	00178713          	addi	a4,a5,1
     490:	fae42e23          	sw	a4,-68(s0)
     494:	0007c783          	lbu	a5,0(a5)
     498:	fcf40ba3          	sb	a5,-41(s0)
     49c:	fd744783          	lbu	a5,-41(s0)
     4a0:	32078663          	beqz	a5,7cc <xvprintf+0x480>
     4a4:	fd744783          	lbu	a5,-41(s0)
     4a8:	fcf40b23          	sb	a5,-42(s0)
     4ac:	fd644703          	lbu	a4,-42(s0)
     4b0:	06000793          	li	a5,96
     4b4:	00e7f863          	bgeu	a5,a4,4c4 <xvprintf+0x178>
     4b8:	fd644783          	lbu	a5,-42(s0)
     4bc:	fe078793          	addi	a5,a5,-32
     4c0:	fcf40b23          	sb	a5,-42(s0)
     4c4:	fd644783          	lbu	a5,-42(s0)
     4c8:	fbe78793          	addi	a5,a5,-66
     4cc:	01600713          	li	a4,22
     4d0:	10f76063          	bltu	a4,a5,5d0 <xvprintf+0x284>
     4d4:	00279713          	slli	a4,a5,0x2
     4d8:	010007b7          	lui	a5,0x1000
     4dc:	00078793          	mv	a5,a5
     4e0:	00f707b3          	add	a5,a4,a5
     4e4:	0007a783          	lw	a5,0(a5) # 1000000 <_data>
     4e8:	00078067          	jr	a5
     4ec:	fb842783          	lw	a5,-72(s0)
     4f0:	00478713          	addi	a4,a5,4
     4f4:	fae42c23          	sw	a4,-72(s0)
     4f8:	0007a783          	lw	a5,0(a5)
     4fc:	fcf42823          	sw	a5,-48(s0)
     500:	fe042223          	sw	zero,-28(s0)
     504:	0100006f          	j	514 <xvprintf+0x1c8>
     508:	fe442783          	lw	a5,-28(s0)
     50c:	00178793          	addi	a5,a5,1
     510:	fef42223          	sw	a5,-28(s0)
     514:	fd042703          	lw	a4,-48(s0)
     518:	fe442783          	lw	a5,-28(s0)
     51c:	00f707b3          	add	a5,a4,a5
     520:	0007c783          	lbu	a5,0(a5)
     524:	fe0792e3          	bnez	a5,508 <xvprintf+0x1bc>
     528:	00c0006f          	j	534 <xvprintf+0x1e8>
     52c:	02000513          	li	a0,32
     530:	d4dff0ef          	jal	ra,27c <xputc>
     534:	fdc42783          	lw	a5,-36(s0)
     538:	0027f793          	andi	a5,a5,2
     53c:	00079c63          	bnez	a5,554 <xvprintf+0x208>
     540:	fe442783          	lw	a5,-28(s0)
     544:	00178713          	addi	a4,a5,1
     548:	fee42223          	sw	a4,-28(s0)
     54c:	fe042703          	lw	a4,-32(s0)
     550:	fce7eee3          	bltu	a5,a4,52c <xvprintf+0x1e0>
     554:	fd042503          	lw	a0,-48(s0)
     558:	da5ff0ef          	jal	ra,2fc <xputs>
     55c:	00c0006f          	j	568 <xvprintf+0x21c>
     560:	02000513          	li	a0,32
     564:	d19ff0ef          	jal	ra,27c <xputc>
     568:	fe442783          	lw	a5,-28(s0)
     56c:	00178713          	addi	a4,a5,1
     570:	fee42223          	sw	a4,-28(s0)
     574:	fe042703          	lw	a4,-32(s0)
     578:	fee7e4e3          	bltu	a5,a4,560 <xvprintf+0x214>
     57c:	2440006f          	j	7c0 <xvprintf+0x474>
     580:	fb842783          	lw	a5,-72(s0)
     584:	00478713          	addi	a4,a5,4
     588:	fae42c23          	sw	a4,-72(s0)
     58c:	0007a783          	lw	a5,0(a5)
     590:	0ff7f793          	andi	a5,a5,255
     594:	00078513          	mv	a0,a5
     598:	ce5ff0ef          	jal	ra,27c <xputc>
     59c:	2240006f          	j	7c0 <xvprintf+0x474>
     5a0:	00200793          	li	a5,2
     5a4:	fef42623          	sw	a5,-20(s0)
     5a8:	0380006f          	j	5e0 <xvprintf+0x294>
     5ac:	00800793          	li	a5,8
     5b0:	fef42623          	sw	a5,-20(s0)
     5b4:	02c0006f          	j	5e0 <xvprintf+0x294>
     5b8:	00a00793          	li	a5,10
     5bc:	fef42623          	sw	a5,-20(s0)
     5c0:	0200006f          	j	5e0 <xvprintf+0x294>
     5c4:	01000793          	li	a5,16
     5c8:	fef42623          	sw	a5,-20(s0)
     5cc:	0140006f          	j	5e0 <xvprintf+0x294>
     5d0:	fd744783          	lbu	a5,-41(s0)
     5d4:	00078513          	mv	a0,a5
     5d8:	ca5ff0ef          	jal	ra,27c <xputc>
     5dc:	1e40006f          	j	7c0 <xvprintf+0x474>
     5e0:	fdc42783          	lw	a5,-36(s0)
     5e4:	0047f793          	andi	a5,a5,4
     5e8:	00078c63          	beqz	a5,600 <xvprintf+0x2b4>
     5ec:	fb842783          	lw	a5,-72(s0)
     5f0:	00478713          	addi	a4,a5,4
     5f4:	fae42c23          	sw	a4,-72(s0)
     5f8:	0007a783          	lw	a5,0(a5)
     5fc:	0340006f          	j	630 <xvprintf+0x2e4>
     600:	fd644703          	lbu	a4,-42(s0)
     604:	04400793          	li	a5,68
     608:	00f71c63          	bne	a4,a5,620 <xvprintf+0x2d4>
     60c:	fb842783          	lw	a5,-72(s0)
     610:	00478713          	addi	a4,a5,4
     614:	fae42c23          	sw	a4,-72(s0)
     618:	0007a783          	lw	a5,0(a5)
     61c:	0140006f          	j	630 <xvprintf+0x2e4>
     620:	fb842783          	lw	a5,-72(s0)
     624:	00478713          	addi	a4,a5,4
     628:	fae42c23          	sw	a4,-72(s0)
     62c:	0007a783          	lw	a5,0(a5)
     630:	fcf42c23          	sw	a5,-40(s0)
     634:	fd644703          	lbu	a4,-42(s0)
     638:	04400793          	li	a5,68
     63c:	02f71263          	bne	a4,a5,660 <xvprintf+0x314>
     640:	fd842783          	lw	a5,-40(s0)
     644:	0007de63          	bgez	a5,660 <xvprintf+0x314>
     648:	fd842783          	lw	a5,-40(s0)
     64c:	40f007b3          	neg	a5,a5
     650:	fcf42c23          	sw	a5,-40(s0)
     654:	fdc42783          	lw	a5,-36(s0)
     658:	0087e793          	ori	a5,a5,8
     65c:	fcf42e23          	sw	a5,-36(s0)
     660:	fe042423          	sw	zero,-24(s0)
     664:	fd842783          	lw	a5,-40(s0)
     668:	fec42583          	lw	a1,-20(s0)
     66c:	00078513          	mv	a0,a5
     670:	665000ef          	jal	ra,14d4 <__umodsi3>
     674:	00050793          	mv	a5,a0
     678:	fcf40b23          	sb	a5,-42(s0)
     67c:	fec42583          	lw	a1,-20(s0)
     680:	fd842503          	lw	a0,-40(s0)
     684:	609000ef          	jal	ra,148c <__udivsi3>
     688:	00050793          	mv	a5,a0
     68c:	fcf42c23          	sw	a5,-40(s0)
     690:	fd644703          	lbu	a4,-42(s0)
     694:	00900793          	li	a5,9
     698:	02e7f463          	bgeu	a5,a4,6c0 <xvprintf+0x374>
     69c:	fd744703          	lbu	a4,-41(s0)
     6a0:	07800793          	li	a5,120
     6a4:	00f71663          	bne	a4,a5,6b0 <xvprintf+0x364>
     6a8:	02700793          	li	a5,39
     6ac:	0080006f          	j	6b4 <xvprintf+0x368>
     6b0:	00700793          	li	a5,7
     6b4:	fd644703          	lbu	a4,-42(s0)
     6b8:	00e787b3          	add	a5,a5,a4
     6bc:	fcf40b23          	sb	a5,-42(s0)
     6c0:	fe842783          	lw	a5,-24(s0)
     6c4:	00178713          	addi	a4,a5,1
     6c8:	fee42423          	sw	a4,-24(s0)
     6cc:	fd644703          	lbu	a4,-42(s0)
     6d0:	03070713          	addi	a4,a4,48
     6d4:	0ff77713          	andi	a4,a4,255
     6d8:	ff040693          	addi	a3,s0,-16
     6dc:	00f687b3          	add	a5,a3,a5
     6e0:	fce78823          	sb	a4,-48(a5)
     6e4:	fd842783          	lw	a5,-40(s0)
     6e8:	00078863          	beqz	a5,6f8 <xvprintf+0x3ac>
     6ec:	fe842703          	lw	a4,-24(s0)
     6f0:	00f00793          	li	a5,15
     6f4:	f6e7f8e3          	bgeu	a5,a4,664 <xvprintf+0x318>
     6f8:	fdc42783          	lw	a5,-36(s0)
     6fc:	0087f793          	andi	a5,a5,8
     700:	02078063          	beqz	a5,720 <xvprintf+0x3d4>
     704:	fe842783          	lw	a5,-24(s0)
     708:	00178713          	addi	a4,a5,1
     70c:	fee42423          	sw	a4,-24(s0)
     710:	ff040713          	addi	a4,s0,-16
     714:	00f707b3          	add	a5,a4,a5
     718:	02d00713          	li	a4,45
     71c:	fce78823          	sb	a4,-48(a5)
     720:	fe842783          	lw	a5,-24(s0)
     724:	fef42223          	sw	a5,-28(s0)
     728:	fdc42783          	lw	a5,-36(s0)
     72c:	0017f793          	andi	a5,a5,1
     730:	00078663          	beqz	a5,73c <xvprintf+0x3f0>
     734:	03000793          	li	a5,48
     738:	0080006f          	j	740 <xvprintf+0x3f4>
     73c:	02000793          	li	a5,32
     740:	fcf40b23          	sb	a5,-42(s0)
     744:	0100006f          	j	754 <xvprintf+0x408>
     748:	fd644783          	lbu	a5,-42(s0)
     74c:	00078513          	mv	a0,a5
     750:	b2dff0ef          	jal	ra,27c <xputc>
     754:	fdc42783          	lw	a5,-36(s0)
     758:	0027f793          	andi	a5,a5,2
     75c:	00079c63          	bnez	a5,774 <xvprintf+0x428>
     760:	fe442783          	lw	a5,-28(s0)
     764:	00178713          	addi	a4,a5,1
     768:	fee42223          	sw	a4,-28(s0)
     76c:	fe042703          	lw	a4,-32(s0)
     770:	fce7ece3          	bltu	a5,a4,748 <xvprintf+0x3fc>
     774:	fe842783          	lw	a5,-24(s0)
     778:	fff78793          	addi	a5,a5,-1
     77c:	fef42423          	sw	a5,-24(s0)
     780:	fe842783          	lw	a5,-24(s0)
     784:	ff040713          	addi	a4,s0,-16
     788:	00f707b3          	add	a5,a4,a5
     78c:	fd07c783          	lbu	a5,-48(a5)
     790:	00078513          	mv	a0,a5
     794:	ae9ff0ef          	jal	ra,27c <xputc>
     798:	fe842783          	lw	a5,-24(s0)
     79c:	fc079ce3          	bnez	a5,774 <xvprintf+0x428>
     7a0:	00c0006f          	j	7ac <xvprintf+0x460>
     7a4:	02000513          	li	a0,32
     7a8:	ad5ff0ef          	jal	ra,27c <xputc>
     7ac:	fe442783          	lw	a5,-28(s0)
     7b0:	00178713          	addi	a4,a5,1
     7b4:	fee42223          	sw	a4,-28(s0)
     7b8:	fe042703          	lw	a4,-32(s0)
     7bc:	fee7e4e3          	bltu	a5,a4,7a4 <xvprintf+0x458>
     7c0:	ba5ff06f          	j	364 <xvprintf+0x18>
     7c4:	00000013          	nop
     7c8:	0080006f          	j	7d0 <xvprintf+0x484>
     7cc:	00000013          	nop
     7d0:	00000013          	nop
     7d4:	04c12083          	lw	ra,76(sp)
     7d8:	04812403          	lw	s0,72(sp)
     7dc:	05010113          	addi	sp,sp,80
     7e0:	00008067          	ret

000007e4 <xprintf>:
     7e4:	fb010113          	addi	sp,sp,-80
     7e8:	02112623          	sw	ra,44(sp)
     7ec:	02812423          	sw	s0,40(sp)
     7f0:	03010413          	addi	s0,sp,48
     7f4:	fca42e23          	sw	a0,-36(s0)
     7f8:	00b42223          	sw	a1,4(s0)
     7fc:	00c42423          	sw	a2,8(s0)
     800:	00d42623          	sw	a3,12(s0)
     804:	00e42823          	sw	a4,16(s0)
     808:	00f42a23          	sw	a5,20(s0)
     80c:	01042c23          	sw	a6,24(s0)
     810:	01142e23          	sw	a7,28(s0)
     814:	02040793          	addi	a5,s0,32
     818:	fe478793          	addi	a5,a5,-28
     81c:	fef42623          	sw	a5,-20(s0)
     820:	fec42783          	lw	a5,-20(s0)
     824:	00078593          	mv	a1,a5
     828:	fdc42503          	lw	a0,-36(s0)
     82c:	b21ff0ef          	jal	ra,34c <xvprintf>
     830:	00000013          	nop
     834:	02c12083          	lw	ra,44(sp)
     838:	02812403          	lw	s0,40(sp)
     83c:	05010113          	addi	sp,sp,80
     840:	00008067          	ret

00000844 <trap_handler>:
     844:	fe010113          	addi	sp,sp,-32
     848:	00812e23          	sw	s0,28(sp)
     84c:	02010413          	addi	s0,sp,32
     850:	fea42623          	sw	a0,-20(s0)
     854:	feb42423          	sw	a1,-24(s0)
     858:	00000013          	nop
     85c:	01c12403          	lw	s0,28(sp)
     860:	02010113          	addi	sp,sp,32
     864:	00008067          	ret

00000868 <set_static_seg>:
     868:	fe010113          	addi	sp,sp,-32
     86c:	00812e23          	sw	s0,28(sp)
     870:	02010413          	addi	s0,sp,32
     874:	00050793          	mv	a5,a0
     878:	fef407a3          	sb	a5,-17(s0)
     87c:	030007b7          	lui	a5,0x3000
     880:	00878793          	addi	a5,a5,8 # 3000008 <__freertos_irq_stack_top+0x1ffc008>
     884:	fef44703          	lbu	a4,-17(s0)
     888:	00e7a023          	sw	a4,0(a5)
     88c:	00000013          	nop
     890:	01c12403          	lw	s0,28(sp)
     894:	02010113          	addi	sp,sp,32
     898:	00008067          	ret

0000089c <set_scan_seg_num>:
     89c:	fd010113          	addi	sp,sp,-48
     8a0:	02812623          	sw	s0,44(sp)
     8a4:	03010413          	addi	s0,sp,48
     8a8:	00050793          	mv	a5,a0
     8ac:	00058713          	mv	a4,a1
     8b0:	fcf40fa3          	sb	a5,-33(s0)
     8b4:	00070793          	mv	a5,a4
     8b8:	fcf40f23          	sb	a5,-34(s0)
     8bc:	030007b7          	lui	a5,0x3000
     8c0:	00478793          	addi	a5,a5,4 # 3000004 <__freertos_irq_stack_top+0x1ffc004>
     8c4:	0007a783          	lw	a5,0(a5)
     8c8:	fef42623          	sw	a5,-20(s0)
     8cc:	00f00793          	li	a5,15
     8d0:	fef42423          	sw	a5,-24(s0)
     8d4:	fdf44783          	lbu	a5,-33(s0)
     8d8:	00379793          	slli	a5,a5,0x3
     8dc:	fe842703          	lw	a4,-24(s0)
     8e0:	00f717b3          	sll	a5,a4,a5
     8e4:	fef42423          	sw	a5,-24(s0)
     8e8:	fe842783          	lw	a5,-24(s0)
     8ec:	fff7c793          	not	a5,a5
     8f0:	fef42423          	sw	a5,-24(s0)
     8f4:	fec42703          	lw	a4,-20(s0)
     8f8:	fe842783          	lw	a5,-24(s0)
     8fc:	00f777b3          	and	a5,a4,a5
     900:	fef42623          	sw	a5,-20(s0)
     904:	fde44783          	lbu	a5,-34(s0)
     908:	00f7f713          	andi	a4,a5,15
     90c:	fdf44783          	lbu	a5,-33(s0)
     910:	00379793          	slli	a5,a5,0x3
     914:	00f717b3          	sll	a5,a4,a5
     918:	fec42703          	lw	a4,-20(s0)
     91c:	00f767b3          	or	a5,a4,a5
     920:	fef42623          	sw	a5,-20(s0)
     924:	030007b7          	lui	a5,0x3000
     928:	00478793          	addi	a5,a5,4 # 3000004 <__freertos_irq_stack_top+0x1ffc004>
     92c:	fec42703          	lw	a4,-20(s0)
     930:	00e7a023          	sw	a4,0(a5)
     934:	00000013          	nop
     938:	02c12403          	lw	s0,44(sp)
     93c:	03010113          	addi	sp,sp,48
     940:	00008067          	ret

00000944 <set_scan_seg_state>:
     944:	fd010113          	addi	sp,sp,-48
     948:	02812623          	sw	s0,44(sp)
     94c:	03010413          	addi	s0,sp,48
     950:	00050793          	mv	a5,a0
     954:	00058713          	mv	a4,a1
     958:	fcf40fa3          	sb	a5,-33(s0)
     95c:	00070793          	mv	a5,a4
     960:	fcf40f23          	sb	a5,-34(s0)
     964:	030007b7          	lui	a5,0x3000
     968:	00478793          	addi	a5,a5,4 # 3000004 <__freertos_irq_stack_top+0x1ffc004>
     96c:	0007a783          	lw	a5,0(a5)
     970:	fef42623          	sw	a5,-20(s0)
     974:	0f000793          	li	a5,240
     978:	fef42423          	sw	a5,-24(s0)
     97c:	fdf44783          	lbu	a5,-33(s0)
     980:	00379793          	slli	a5,a5,0x3
     984:	fe842703          	lw	a4,-24(s0)
     988:	00f717b3          	sll	a5,a4,a5
     98c:	fef42423          	sw	a5,-24(s0)
     990:	fe842783          	lw	a5,-24(s0)
     994:	fff7c793          	not	a5,a5
     998:	fef42423          	sw	a5,-24(s0)
     99c:	fec42703          	lw	a4,-20(s0)
     9a0:	fe842783          	lw	a5,-24(s0)
     9a4:	00f777b3          	and	a5,a4,a5
     9a8:	fef42623          	sw	a5,-20(s0)
     9ac:	fde44783          	lbu	a5,-34(s0)
     9b0:	00479793          	slli	a5,a5,0x4
     9b4:	0ff7f713          	andi	a4,a5,255
     9b8:	fdf44783          	lbu	a5,-33(s0)
     9bc:	00379793          	slli	a5,a5,0x3
     9c0:	00f717b3          	sll	a5,a4,a5
     9c4:	fec42703          	lw	a4,-20(s0)
     9c8:	00f767b3          	or	a5,a4,a5
     9cc:	fef42623          	sw	a5,-20(s0)
     9d0:	030007b7          	lui	a5,0x3000
     9d4:	00478793          	addi	a5,a5,4 # 3000004 <__freertos_irq_stack_top+0x1ffc004>
     9d8:	fec42703          	lw	a4,-20(s0)
     9dc:	00e7a023          	sw	a4,0(a5)
     9e0:	00000013          	nop
     9e4:	02c12403          	lw	s0,44(sp)
     9e8:	03010113          	addi	sp,sp,48
     9ec:	00008067          	ret

000009f0 <get_sec_clock_run_time>:
     9f0:	ff010113          	addi	sp,sp,-16
     9f4:	00812623          	sw	s0,12(sp)
     9f8:	01010413          	addi	s0,sp,16
     9fc:	040007b7          	lui	a5,0x4000
     a00:	00478793          	addi	a5,a5,4 # 4000004 <__freertos_irq_stack_top+0x2ffc004>
     a04:	0007a783          	lw	a5,0(a5)
     a08:	00078513          	mv	a0,a5
     a0c:	00c12403          	lw	s0,12(sp)
     a10:	01010113          	addi	sp,sp,16
     a14:	00008067          	ret

00000a18 <sec_clock_clr>:
     a18:	ff010113          	addi	sp,sp,-16
     a1c:	00812623          	sw	s0,12(sp)
     a20:	01010413          	addi	s0,sp,16
     a24:	040007b7          	lui	a5,0x4000
     a28:	00878793          	addi	a5,a5,8 # 4000008 <__freertos_irq_stack_top+0x2ffc008>
     a2c:	00100713          	li	a4,1
     a30:	00e7a023          	sw	a4,0(a5)
     a34:	00000013          	nop
     a38:	00c12403          	lw	s0,12(sp)
     a3c:	01010113          	addi	sp,sp,16
     a40:	00008067          	ret

00000a44 <set_sec_clock_init_time>:
     a44:	fe010113          	addi	sp,sp,-32
     a48:	00112e23          	sw	ra,28(sp)
     a4c:	00812c23          	sw	s0,24(sp)
     a50:	02010413          	addi	s0,sp,32
     a54:	fea42623          	sw	a0,-20(s0)
     a58:	040007b7          	lui	a5,0x4000
     a5c:	00c78793          	addi	a5,a5,12 # 400000c <__freertos_irq_stack_top+0x2ffc00c>
     a60:	fec42703          	lw	a4,-20(s0)
     a64:	00e7a023          	sw	a4,0(a5)
     a68:	fb1ff0ef          	jal	ra,a18 <sec_clock_clr>
     a6c:	00000013          	nop
     a70:	01c12083          	lw	ra,28(sp)
     a74:	01812403          	lw	s0,24(sp)
     a78:	02010113          	addi	sp,sp,32
     a7c:	00008067          	ret

00000a80 <get_sec_clock_init_time>:
     a80:	ff010113          	addi	sp,sp,-16
     a84:	00812623          	sw	s0,12(sp)
     a88:	01010413          	addi	s0,sp,16
     a8c:	040007b7          	lui	a5,0x4000
     a90:	00c78793          	addi	a5,a5,12 # 400000c <__freertos_irq_stack_top+0x2ffc00c>
     a94:	0007a783          	lw	a5,0(a5)
     a98:	00078513          	mv	a0,a5
     a9c:	00c12403          	lw	s0,12(sp)
     aa0:	01010113          	addi	sp,sp,16
     aa4:	00008067          	ret

00000aa8 <get_sec_clock_cur_time>:
     aa8:	ff010113          	addi	sp,sp,-16
     aac:	00112623          	sw	ra,12(sp)
     ab0:	00812423          	sw	s0,8(sp)
     ab4:	00912223          	sw	s1,4(sp)
     ab8:	01010413          	addi	s0,sp,16
     abc:	fc5ff0ef          	jal	ra,a80 <get_sec_clock_init_time>
     ac0:	00050493          	mv	s1,a0
     ac4:	f2dff0ef          	jal	ra,9f0 <get_sec_clock_run_time>
     ac8:	00050793          	mv	a5,a0
     acc:	00f48733          	add	a4,s1,a5
     ad0:	000157b7          	lui	a5,0x15
     ad4:	18078793          	addi	a5,a5,384 # 15180 <__stack_size+0x13180>
     ad8:	00f70733          	add	a4,a4,a5
     adc:	000157b7          	lui	a5,0x15
     ae0:	18078593          	addi	a1,a5,384 # 15180 <__stack_size+0x13180>
     ae4:	00070513          	mv	a0,a4
     ae8:	1ed000ef          	jal	ra,14d4 <__umodsi3>
     aec:	00050793          	mv	a5,a0
     af0:	00078513          	mv	a0,a5
     af4:	00c12083          	lw	ra,12(sp)
     af8:	00812403          	lw	s0,8(sp)
     afc:	00412483          	lw	s1,4(sp)
     b00:	01010113          	addi	sp,sp,16
     b04:	00008067          	ret

00000b08 <refresh_button_level>:
     b08:	ff010113          	addi	sp,sp,-16
     b0c:	00812623          	sw	s0,12(sp)
     b10:	01010413          	addi	s0,sp,16
     b14:	010007b7          	lui	a5,0x1000
     b18:	1997c703          	lbu	a4,409(a5) # 1000199 <cur_button_level>
     b1c:	010007b7          	lui	a5,0x1000
     b20:	18e78c23          	sb	a4,408(a5) # 1000198 <pre_button_level>
     b24:	050007b7          	lui	a5,0x5000
     b28:	00478793          	addi	a5,a5,4 # 5000004 <__freertos_irq_stack_top+0x3ffc004>
     b2c:	0007a783          	lw	a5,0(a5)
     b30:	0ff7f713          	andi	a4,a5,255
     b34:	010007b7          	lui	a5,0x1000
     b38:	18e78ca3          	sb	a4,409(a5) # 1000199 <cur_button_level>
     b3c:	00000013          	nop
     b40:	00c12403          	lw	s0,12(sp)
     b44:	01010113          	addi	sp,sp,16
     b48:	00008067          	ret

00000b4c <detect_falling>:
     b4c:	ff010113          	addi	sp,sp,-16
     b50:	00112623          	sw	ra,12(sp)
     b54:	00812423          	sw	s0,8(sp)
     b58:	01010413          	addi	s0,sp,16
     b5c:	fadff0ef          	jal	ra,b08 <refresh_button_level>
     b60:	010007b7          	lui	a5,0x1000
     b64:	1997c783          	lbu	a5,409(a5) # 1000199 <cur_button_level>
     b68:	fff7c793          	not	a5,a5
     b6c:	0ff7f713          	andi	a4,a5,255
     b70:	010007b7          	lui	a5,0x1000
     b74:	1987c783          	lbu	a5,408(a5) # 1000198 <pre_button_level>
     b78:	00f777b3          	and	a5,a4,a5
     b7c:	0ff7f793          	andi	a5,a5,255
     b80:	00078513          	mv	a0,a5
     b84:	00c12083          	lw	ra,12(sp)
     b88:	00812403          	lw	s0,8(sp)
     b8c:	01010113          	addi	sp,sp,16
     b90:	00008067          	ret

00000b94 <digital_clock_init>:
     b94:	fe010113          	addi	sp,sp,-32
     b98:	00112e23          	sw	ra,28(sp)
     b9c:	00812c23          	sw	s0,24(sp)
     ba0:	02010413          	addi	s0,sp,32
     ba4:	ea4ff0ef          	jal	ra,248 <uart_init>
     ba8:	fe042623          	sw	zero,-20(s0)
     bac:	0380006f          	j	be4 <digital_clock_init+0x50>
     bb0:	fec42783          	lw	a5,-20(s0)
     bb4:	0ff7f793          	andi	a5,a5,255
     bb8:	00800593          	li	a1,8
     bbc:	00078513          	mv	a0,a5
     bc0:	d85ff0ef          	jal	ra,944 <set_scan_seg_state>
     bc4:	fec42783          	lw	a5,-20(s0)
     bc8:	0ff7f793          	andi	a5,a5,255
     bcc:	00000593          	li	a1,0
     bd0:	00078513          	mv	a0,a5
     bd4:	cc9ff0ef          	jal	ra,89c <set_scan_seg_num>
     bd8:	fec42783          	lw	a5,-20(s0)
     bdc:	00178793          	addi	a5,a5,1
     be0:	fef42623          	sw	a5,-20(s0)
     be4:	fec42703          	lw	a4,-20(s0)
     be8:	00300793          	li	a5,3
     bec:	fce7d2e3          	bge	a5,a4,bb0 <digital_clock_init+0x1c>
     bf0:	00c00593          	li	a1,12
     bf4:	00100513          	li	a0,1
     bf8:	d4dff0ef          	jal	ra,944 <set_scan_seg_state>
     bfc:	00000513          	li	a0,0
     c00:	c69ff0ef          	jal	ra,868 <set_static_seg>
     c04:	00000513          	li	a0,0
     c08:	e3dff0ef          	jal	ra,a44 <set_sec_clock_init_time>
     c0c:	82018223          	sb	zero,-2012(gp) # 10001bc <alarm_enable>
     c10:	820182a3          	sb	zero,-2011(gp) # 10001bd <alarm_triggle>
     c14:	00000013          	nop
     c18:	01c12083          	lw	ra,28(sp)
     c1c:	01812403          	lw	s0,24(sp)
     c20:	02010113          	addi	sp,sp,32
     c24:	00008067          	ret

00000c28 <refresh_time>:
     c28:	ff010113          	addi	sp,sp,-16
     c2c:	00112623          	sw	ra,12(sp)
     c30:	00812423          	sw	s0,8(sp)
     c34:	01010413          	addi	s0,sp,16
     c38:	e71ff0ef          	jal	ra,aa8 <get_sec_clock_cur_time>
     c3c:	00050713          	mv	a4,a0
     c40:	82e1a023          	sw	a4,-2016(gp) # 10001b8 <cur_timestamp>
     c44:	00000013          	nop
     c48:	00c12083          	lw	ra,12(sp)
     c4c:	00812403          	lw	s0,8(sp)
     c50:	01010113          	addi	sp,sp,16
     c54:	00008067          	ret

00000c58 <check_alarm>:
     c58:	ff010113          	addi	sp,sp,-16
     c5c:	00112623          	sw	ra,12(sp)
     c60:	00812423          	sw	s0,8(sp)
     c64:	01010413          	addi	s0,sp,16
     c68:	8241c783          	lbu	a5,-2012(gp) # 10001bc <alarm_enable>
     c6c:	00078c63          	beqz	a5,c84 <check_alarm+0x2c>
     c70:	8141a703          	lw	a4,-2028(gp) # 10001ac <alarm_timestamp>
     c74:	8201a783          	lw	a5,-2016(gp) # 10001b8 <cur_timestamp>
     c78:	00f71663          	bne	a4,a5,c84 <check_alarm+0x2c>
     c7c:	00100713          	li	a4,1
     c80:	82e182a3          	sb	a4,-2011(gp) # 10001bd <alarm_triggle>
     c84:	8251c783          	lbu	a5,-2011(gp) # 10001bd <alarm_triggle>
     c88:	00078863          	beqz	a5,c98 <check_alarm+0x40>
     c8c:	010007b7          	lui	a5,0x1000
     c90:	05c78513          	addi	a0,a5,92 # 100005c <_data+0x5c>
     c94:	b51ff0ef          	jal	ra,7e4 <xprintf>
     c98:	00000013          	nop
     c9c:	00c12083          	lw	ra,12(sp)
     ca0:	00812403          	lw	s0,8(sp)
     ca4:	01010113          	addi	sp,sp,16
     ca8:	00008067          	ret

00000cac <seg_show_cur_time>:
     cac:	fe010113          	addi	sp,sp,-32
     cb0:	00112e23          	sw	ra,28(sp)
     cb4:	00812c23          	sw	s0,24(sp)
     cb8:	00912a23          	sw	s1,20(sp)
     cbc:	02010413          	addi	s0,sp,32
     cc0:	8201a783          	lw	a5,-2016(gp) # 10001b8 <cur_timestamp>
     cc4:	00078513          	mv	a0,a5
     cc8:	6cc000ef          	jal	ra,1394 <timestamp_to_time>
     ccc:	00050793          	mv	a5,a0
     cd0:	fef40623          	sb	a5,-20(s0)
     cd4:	0087d713          	srli	a4,a5,0x8
     cd8:	fff77713          	andi	a4,a4,-1
     cdc:	fee406a3          	sb	a4,-19(s0)
     ce0:	0107d793          	srli	a5,a5,0x10
     ce4:	fff7f793          	andi	a5,a5,-1
     ce8:	fef40723          	sb	a5,-18(s0)
     cec:	fec44783          	lbu	a5,-20(s0)
     cf0:	00a00593          	li	a1,10
     cf4:	00078513          	mv	a0,a5
     cf8:	794000ef          	jal	ra,148c <__udivsi3>
     cfc:	00050793          	mv	a5,a0
     d00:	0ff7f793          	andi	a5,a5,255
     d04:	00078593          	mv	a1,a5
     d08:	00000513          	li	a0,0
     d0c:	b91ff0ef          	jal	ra,89c <set_scan_seg_num>
     d10:	fec44783          	lbu	a5,-20(s0)
     d14:	00a00593          	li	a1,10
     d18:	00078513          	mv	a0,a5
     d1c:	7b8000ef          	jal	ra,14d4 <__umodsi3>
     d20:	00050793          	mv	a5,a0
     d24:	0ff7f793          	andi	a5,a5,255
     d28:	00078593          	mv	a1,a5
     d2c:	00100513          	li	a0,1
     d30:	b6dff0ef          	jal	ra,89c <set_scan_seg_num>
     d34:	fed44783          	lbu	a5,-19(s0)
     d38:	00a00593          	li	a1,10
     d3c:	00078513          	mv	a0,a5
     d40:	74c000ef          	jal	ra,148c <__udivsi3>
     d44:	00050793          	mv	a5,a0
     d48:	0ff7f793          	andi	a5,a5,255
     d4c:	00078593          	mv	a1,a5
     d50:	00200513          	li	a0,2
     d54:	b49ff0ef          	jal	ra,89c <set_scan_seg_num>
     d58:	fed44783          	lbu	a5,-19(s0)
     d5c:	00a00593          	li	a1,10
     d60:	00078513          	mv	a0,a5
     d64:	770000ef          	jal	ra,14d4 <__umodsi3>
     d68:	00050793          	mv	a5,a0
     d6c:	0ff7f793          	andi	a5,a5,255
     d70:	00078593          	mv	a1,a5
     d74:	00300513          	li	a0,3
     d78:	b25ff0ef          	jal	ra,89c <set_scan_seg_num>
     d7c:	fee44783          	lbu	a5,-18(s0)
     d80:	00a00593          	li	a1,10
     d84:	00078513          	mv	a0,a5
     d88:	74c000ef          	jal	ra,14d4 <__umodsi3>
     d8c:	00050793          	mv	a5,a0
     d90:	0ff7f493          	andi	s1,a5,255
     d94:	fee44783          	lbu	a5,-18(s0)
     d98:	00a00593          	li	a1,10
     d9c:	00078513          	mv	a0,a5
     da0:	6ec000ef          	jal	ra,148c <__udivsi3>
     da4:	00050793          	mv	a5,a0
     da8:	0ff7f793          	andi	a5,a5,255
     dac:	00479793          	slli	a5,a5,0x4
     db0:	0ff7f793          	andi	a5,a5,255
     db4:	00f487b3          	add	a5,s1,a5
     db8:	fef407a3          	sb	a5,-17(s0)
     dbc:	fef44783          	lbu	a5,-17(s0)
     dc0:	00078513          	mv	a0,a5
     dc4:	aa5ff0ef          	jal	ra,868 <set_static_seg>
     dc8:	00000013          	nop
     dcc:	01c12083          	lw	ra,28(sp)
     dd0:	01812403          	lw	s0,24(sp)
     dd4:	01412483          	lw	s1,20(sp)
     dd8:	02010113          	addi	sp,sp,32
     ddc:	00008067          	ret

00000de0 <seg_show_tar_time>:
     de0:	fe010113          	addi	sp,sp,-32
     de4:	00112e23          	sw	ra,28(sp)
     de8:	00812c23          	sw	s0,24(sp)
     dec:	00912a23          	sw	s1,20(sp)
     df0:	02010413          	addi	s0,sp,32
     df4:	8101a783          	lw	a5,-2032(gp) # 10001a8 <tar_timestamp>
     df8:	00078513          	mv	a0,a5
     dfc:	598000ef          	jal	ra,1394 <timestamp_to_time>
     e00:	00050793          	mv	a5,a0
     e04:	fef40623          	sb	a5,-20(s0)
     e08:	0087d713          	srli	a4,a5,0x8
     e0c:	fff77713          	andi	a4,a4,-1
     e10:	fee406a3          	sb	a4,-19(s0)
     e14:	0107d793          	srli	a5,a5,0x10
     e18:	fff7f793          	andi	a5,a5,-1
     e1c:	fef40723          	sb	a5,-18(s0)
     e20:	fec44783          	lbu	a5,-20(s0)
     e24:	00a00593          	li	a1,10
     e28:	00078513          	mv	a0,a5
     e2c:	660000ef          	jal	ra,148c <__udivsi3>
     e30:	00050793          	mv	a5,a0
     e34:	0ff7f793          	andi	a5,a5,255
     e38:	00078593          	mv	a1,a5
     e3c:	00000513          	li	a0,0
     e40:	a5dff0ef          	jal	ra,89c <set_scan_seg_num>
     e44:	fec44783          	lbu	a5,-20(s0)
     e48:	00a00593          	li	a1,10
     e4c:	00078513          	mv	a0,a5
     e50:	684000ef          	jal	ra,14d4 <__umodsi3>
     e54:	00050793          	mv	a5,a0
     e58:	0ff7f793          	andi	a5,a5,255
     e5c:	00078593          	mv	a1,a5
     e60:	00100513          	li	a0,1
     e64:	a39ff0ef          	jal	ra,89c <set_scan_seg_num>
     e68:	fed44783          	lbu	a5,-19(s0)
     e6c:	00a00593          	li	a1,10
     e70:	00078513          	mv	a0,a5
     e74:	618000ef          	jal	ra,148c <__udivsi3>
     e78:	00050793          	mv	a5,a0
     e7c:	0ff7f793          	andi	a5,a5,255
     e80:	00078593          	mv	a1,a5
     e84:	00200513          	li	a0,2
     e88:	a15ff0ef          	jal	ra,89c <set_scan_seg_num>
     e8c:	fed44783          	lbu	a5,-19(s0)
     e90:	00a00593          	li	a1,10
     e94:	00078513          	mv	a0,a5
     e98:	63c000ef          	jal	ra,14d4 <__umodsi3>
     e9c:	00050793          	mv	a5,a0
     ea0:	0ff7f793          	andi	a5,a5,255
     ea4:	00078593          	mv	a1,a5
     ea8:	00300513          	li	a0,3
     eac:	9f1ff0ef          	jal	ra,89c <set_scan_seg_num>
     eb0:	fee44783          	lbu	a5,-18(s0)
     eb4:	00a00593          	li	a1,10
     eb8:	00078513          	mv	a0,a5
     ebc:	618000ef          	jal	ra,14d4 <__umodsi3>
     ec0:	00050793          	mv	a5,a0
     ec4:	0ff7f493          	andi	s1,a5,255
     ec8:	fee44783          	lbu	a5,-18(s0)
     ecc:	00a00593          	li	a1,10
     ed0:	00078513          	mv	a0,a5
     ed4:	5b8000ef          	jal	ra,148c <__udivsi3>
     ed8:	00050793          	mv	a5,a0
     edc:	0ff7f793          	andi	a5,a5,255
     ee0:	00479793          	slli	a5,a5,0x4
     ee4:	0ff7f793          	andi	a5,a5,255
     ee8:	00f487b3          	add	a5,s1,a5
     eec:	fef407a3          	sb	a5,-17(s0)
     ef0:	fef44783          	lbu	a5,-17(s0)
     ef4:	00078513          	mv	a0,a5
     ef8:	971ff0ef          	jal	ra,868 <set_static_seg>
     efc:	00000013          	nop
     f00:	01c12083          	lw	ra,28(sp)
     f04:	01812403          	lw	s0,24(sp)
     f08:	01412483          	lw	s1,20(sp)
     f0c:	02010113          	addi	sp,sp,32
     f10:	00008067          	ret

00000f14 <seg_show_alarm_time>:
     f14:	fe010113          	addi	sp,sp,-32
     f18:	00112e23          	sw	ra,28(sp)
     f1c:	00812c23          	sw	s0,24(sp)
     f20:	00912a23          	sw	s1,20(sp)
     f24:	02010413          	addi	s0,sp,32
     f28:	81c1a783          	lw	a5,-2020(gp) # 10001b4 <alarm_timestamp_tmp>
     f2c:	00078513          	mv	a0,a5
     f30:	464000ef          	jal	ra,1394 <timestamp_to_time>
     f34:	00050793          	mv	a5,a0
     f38:	fef40623          	sb	a5,-20(s0)
     f3c:	0087d713          	srli	a4,a5,0x8
     f40:	fff77713          	andi	a4,a4,-1
     f44:	fee406a3          	sb	a4,-19(s0)
     f48:	0107d793          	srli	a5,a5,0x10
     f4c:	fff7f793          	andi	a5,a5,-1
     f50:	fef40723          	sb	a5,-18(s0)
     f54:	fec44783          	lbu	a5,-20(s0)
     f58:	00a00593          	li	a1,10
     f5c:	00078513          	mv	a0,a5
     f60:	52c000ef          	jal	ra,148c <__udivsi3>
     f64:	00050793          	mv	a5,a0
     f68:	0ff7f793          	andi	a5,a5,255
     f6c:	00078593          	mv	a1,a5
     f70:	00000513          	li	a0,0
     f74:	929ff0ef          	jal	ra,89c <set_scan_seg_num>
     f78:	fec44783          	lbu	a5,-20(s0)
     f7c:	00a00593          	li	a1,10
     f80:	00078513          	mv	a0,a5
     f84:	550000ef          	jal	ra,14d4 <__umodsi3>
     f88:	00050793          	mv	a5,a0
     f8c:	0ff7f793          	andi	a5,a5,255
     f90:	00078593          	mv	a1,a5
     f94:	00100513          	li	a0,1
     f98:	905ff0ef          	jal	ra,89c <set_scan_seg_num>
     f9c:	fed44783          	lbu	a5,-19(s0)
     fa0:	00a00593          	li	a1,10
     fa4:	00078513          	mv	a0,a5
     fa8:	4e4000ef          	jal	ra,148c <__udivsi3>
     fac:	00050793          	mv	a5,a0
     fb0:	0ff7f793          	andi	a5,a5,255
     fb4:	00078593          	mv	a1,a5
     fb8:	00200513          	li	a0,2
     fbc:	8e1ff0ef          	jal	ra,89c <set_scan_seg_num>
     fc0:	fed44783          	lbu	a5,-19(s0)
     fc4:	00a00593          	li	a1,10
     fc8:	00078513          	mv	a0,a5
     fcc:	508000ef          	jal	ra,14d4 <__umodsi3>
     fd0:	00050793          	mv	a5,a0
     fd4:	0ff7f793          	andi	a5,a5,255
     fd8:	00078593          	mv	a1,a5
     fdc:	00300513          	li	a0,3
     fe0:	8bdff0ef          	jal	ra,89c <set_scan_seg_num>
     fe4:	fee44783          	lbu	a5,-18(s0)
     fe8:	00a00593          	li	a1,10
     fec:	00078513          	mv	a0,a5
     ff0:	4e4000ef          	jal	ra,14d4 <__umodsi3>
     ff4:	00050793          	mv	a5,a0
     ff8:	0ff7f493          	andi	s1,a5,255
     ffc:	fee44783          	lbu	a5,-18(s0)
    1000:	00a00593          	li	a1,10
    1004:	00078513          	mv	a0,a5
    1008:	484000ef          	jal	ra,148c <__udivsi3>
    100c:	00050793          	mv	a5,a0
    1010:	0ff7f793          	andi	a5,a5,255
    1014:	00479793          	slli	a5,a5,0x4
    1018:	0ff7f793          	andi	a5,a5,255
    101c:	00f487b3          	add	a5,s1,a5
    1020:	fef407a3          	sb	a5,-17(s0)
    1024:	fef44783          	lbu	a5,-17(s0)
    1028:	00078513          	mv	a0,a5
    102c:	83dff0ef          	jal	ra,868 <set_static_seg>
    1030:	00000013          	nop
    1034:	01c12083          	lw	ra,28(sp)
    1038:	01812403          	lw	s0,24(sp)
    103c:	01412483          	lw	s1,20(sp)
    1040:	02010113          	addi	sp,sp,32
    1044:	00008067          	ret

00001048 <button_action>:
    1048:	fd010113          	addi	sp,sp,-48
    104c:	02112623          	sw	ra,44(sp)
    1050:	02812423          	sw	s0,40(sp)
    1054:	03010413          	addi	s0,sp,48
    1058:	fca42e23          	sw	a0,-36(s0)
    105c:	af1ff0ef          	jal	ra,b4c <detect_falling>
    1060:	00050793          	mv	a5,a0
    1064:	fef407a3          	sb	a5,-17(s0)
    1068:	fef44783          	lbu	a5,-17(s0)
    106c:	30078a63          	beqz	a5,1380 <button_action+0x338>
    1070:	fdc42783          	lw	a5,-36(s0)
    1074:	08079a63          	bnez	a5,1108 <button_action+0xc0>
    1078:	fef40783          	lb	a5,-17(s0)
    107c:	0207d063          	bgez	a5,109c <button_action+0x54>
    1080:	8201a703          	lw	a4,-2016(gp) # 10001b8 <cur_timestamp>
    1084:	80e1a823          	sw	a4,-2032(gp) # 10001a8 <tar_timestamp>
    1088:	00100713          	li	a4,1
    108c:	80e1ac23          	sw	a4,-2024(gp) # 10001b0 <g_main_status>
    1090:	010007b7          	lui	a5,0x1000
    1094:	08478513          	addi	a0,a5,132 # 1000084 <_data+0x84>
    1098:	f4cff0ef          	jal	ra,7e4 <xprintf>
    109c:	fef44783          	lbu	a5,-17(s0)
    10a0:	0407f793          	andi	a5,a5,64
    10a4:	02078063          	beqz	a5,10c4 <button_action+0x7c>
    10a8:	8141a703          	lw	a4,-2028(gp) # 10001ac <alarm_timestamp>
    10ac:	80e1ae23          	sw	a4,-2020(gp) # 10001b4 <alarm_timestamp_tmp>
    10b0:	00200713          	li	a4,2
    10b4:	80e1ac23          	sw	a4,-2024(gp) # 10001b0 <g_main_status>
    10b8:	010007b7          	lui	a5,0x1000
    10bc:	0ac78513          	addi	a0,a5,172 # 10000ac <_data+0xac>
    10c0:	f24ff0ef          	jal	ra,7e4 <xprintf>
    10c4:	fef44783          	lbu	a5,-17(s0)
    10c8:	0107f793          	andi	a5,a5,16
    10cc:	00078c63          	beqz	a5,10e4 <button_action+0x9c>
    10d0:	00100713          	li	a4,1
    10d4:	82e18223          	sb	a4,-2012(gp) # 10001bc <alarm_enable>
    10d8:	010007b7          	lui	a5,0x1000
    10dc:	0d478513          	addi	a0,a5,212 # 10000d4 <_data+0xd4>
    10e0:	f04ff0ef          	jal	ra,7e4 <xprintf>
    10e4:	fef44783          	lbu	a5,-17(s0)
    10e8:	0087f793          	andi	a5,a5,8
    10ec:	28078c63          	beqz	a5,1384 <button_action+0x33c>
    10f0:	82018223          	sb	zero,-2012(gp) # 10001bc <alarm_enable>
    10f4:	820182a3          	sb	zero,-2011(gp) # 10001bd <alarm_triggle>
    10f8:	010007b7          	lui	a5,0x1000
    10fc:	0fc78513          	addi	a0,a5,252 # 10000fc <_data+0xfc>
    1100:	ee4ff0ef          	jal	ra,7e4 <xprintf>
    1104:	2800006f          	j	1384 <button_action+0x33c>
    1108:	fdc42703          	lw	a4,-36(s0)
    110c:	00100793          	li	a5,1
    1110:	14f71863          	bne	a4,a5,1260 <button_action+0x218>
    1114:	fef40783          	lb	a5,-17(s0)
    1118:	0007dc63          	bgez	a5,1130 <button_action+0xe8>
    111c:	8101a703          	lw	a4,-2032(gp) # 10001a8 <tar_timestamp>
    1120:	000017b7          	lui	a5,0x1
    1124:	e1078793          	addi	a5,a5,-496 # e10 <seg_show_tar_time+0x30>
    1128:	00f70733          	add	a4,a4,a5
    112c:	80e1a823          	sw	a4,-2032(gp) # 10001a8 <tar_timestamp>
    1130:	fef44783          	lbu	a5,-17(s0)
    1134:	0407f793          	andi	a5,a5,64
    1138:	00078863          	beqz	a5,1148 <button_action+0x100>
    113c:	8101a783          	lw	a5,-2032(gp) # 10001a8 <tar_timestamp>
    1140:	03c78713          	addi	a4,a5,60
    1144:	80e1a823          	sw	a4,-2032(gp) # 10001a8 <tar_timestamp>
    1148:	fef44783          	lbu	a5,-17(s0)
    114c:	0207f793          	andi	a5,a5,32
    1150:	00078863          	beqz	a5,1160 <button_action+0x118>
    1154:	8101a783          	lw	a5,-2032(gp) # 10001a8 <tar_timestamp>
    1158:	00178713          	addi	a4,a5,1
    115c:	80e1a823          	sw	a4,-2032(gp) # 10001a8 <tar_timestamp>
    1160:	fef44783          	lbu	a5,-17(s0)
    1164:	0107f793          	andi	a5,a5,16
    1168:	00078c63          	beqz	a5,1180 <button_action+0x138>
    116c:	8101a703          	lw	a4,-2032(gp) # 10001a8 <tar_timestamp>
    1170:	fffff7b7          	lui	a5,0xfffff
    1174:	1f078793          	addi	a5,a5,496 # fffff1f0 <__freertos_irq_stack_top+0xfeffb1f0>
    1178:	00f70733          	add	a4,a4,a5
    117c:	80e1a823          	sw	a4,-2032(gp) # 10001a8 <tar_timestamp>
    1180:	fef44783          	lbu	a5,-17(s0)
    1184:	0087f793          	andi	a5,a5,8
    1188:	00078863          	beqz	a5,1198 <button_action+0x150>
    118c:	8101a783          	lw	a5,-2032(gp) # 10001a8 <tar_timestamp>
    1190:	fc478713          	addi	a4,a5,-60
    1194:	80e1a823          	sw	a4,-2032(gp) # 10001a8 <tar_timestamp>
    1198:	fef44783          	lbu	a5,-17(s0)
    119c:	0047f793          	andi	a5,a5,4
    11a0:	00078863          	beqz	a5,11b0 <button_action+0x168>
    11a4:	8101a783          	lw	a5,-2032(gp) # 10001a8 <tar_timestamp>
    11a8:	fff78713          	addi	a4,a5,-1
    11ac:	80e1a823          	sw	a4,-2032(gp) # 10001a8 <tar_timestamp>
    11b0:	8101a703          	lw	a4,-2032(gp) # 10001a8 <tar_timestamp>
    11b4:	000157b7          	lui	a5,0x15
    11b8:	18078793          	addi	a5,a5,384 # 15180 <__stack_size+0x13180>
    11bc:	00f70733          	add	a4,a4,a5
    11c0:	80e1a823          	sw	a4,-2032(gp) # 10001a8 <tar_timestamp>
    11c4:	8101a703          	lw	a4,-2032(gp) # 10001a8 <tar_timestamp>
    11c8:	000157b7          	lui	a5,0x15
    11cc:	18078593          	addi	a1,a5,384 # 15180 <__stack_size+0x13180>
    11d0:	00070513          	mv	a0,a4
    11d4:	300000ef          	jal	ra,14d4 <__umodsi3>
    11d8:	00050793          	mv	a5,a0
    11dc:	00078713          	mv	a4,a5
    11e0:	80e1a823          	sw	a4,-2032(gp) # 10001a8 <tar_timestamp>
    11e4:	fef44783          	lbu	a5,-17(s0)
    11e8:	0027f793          	andi	a5,a5,2
    11ec:	00078a63          	beqz	a5,1200 <button_action+0x1b8>
    11f0:	8001ac23          	sw	zero,-2024(gp) # 10001b0 <g_main_status>
    11f4:	010007b7          	lui	a5,0x1000
    11f8:	12478513          	addi	a0,a5,292 # 1000124 <_data+0x124>
    11fc:	de8ff0ef          	jal	ra,7e4 <xprintf>
    1200:	fef44783          	lbu	a5,-17(s0)
    1204:	0017f793          	andi	a5,a5,1
    1208:	02078063          	beqz	a5,1228 <button_action+0x1e0>
    120c:	8101a783          	lw	a5,-2032(gp) # 10001a8 <tar_timestamp>
    1210:	00078513          	mv	a0,a5
    1214:	831ff0ef          	jal	ra,a44 <set_sec_clock_init_time>
    1218:	8001ac23          	sw	zero,-2024(gp) # 10001b0 <g_main_status>
    121c:	010007b7          	lui	a5,0x1000
    1220:	14878513          	addi	a0,a5,328 # 1000148 <_data+0x148>
    1224:	dc0ff0ef          	jal	ra,7e4 <xprintf>
    1228:	8101a703          	lw	a4,-2032(gp) # 10001a8 <tar_timestamp>
    122c:	000157b7          	lui	a5,0x15
    1230:	18078793          	addi	a5,a5,384 # 15180 <__stack_size+0x13180>
    1234:	00f70733          	add	a4,a4,a5
    1238:	80e1a823          	sw	a4,-2032(gp) # 10001a8 <tar_timestamp>
    123c:	8101a703          	lw	a4,-2032(gp) # 10001a8 <tar_timestamp>
    1240:	000157b7          	lui	a5,0x15
    1244:	18078593          	addi	a1,a5,384 # 15180 <__stack_size+0x13180>
    1248:	00070513          	mv	a0,a4
    124c:	288000ef          	jal	ra,14d4 <__umodsi3>
    1250:	00050793          	mv	a5,a0
    1254:	00078713          	mv	a4,a5
    1258:	80e1a823          	sw	a4,-2032(gp) # 10001a8 <tar_timestamp>
    125c:	1280006f          	j	1384 <button_action+0x33c>
    1260:	fdc42703          	lw	a4,-36(s0)
    1264:	00200793          	li	a5,2
    1268:	10f71e63          	bne	a4,a5,1384 <button_action+0x33c>
    126c:	fef40783          	lb	a5,-17(s0)
    1270:	0007dc63          	bgez	a5,1288 <button_action+0x240>
    1274:	81c1a703          	lw	a4,-2020(gp) # 10001b4 <alarm_timestamp_tmp>
    1278:	000017b7          	lui	a5,0x1
    127c:	e1078793          	addi	a5,a5,-496 # e10 <seg_show_tar_time+0x30>
    1280:	00f70733          	add	a4,a4,a5
    1284:	80e1ae23          	sw	a4,-2020(gp) # 10001b4 <alarm_timestamp_tmp>
    1288:	fef44783          	lbu	a5,-17(s0)
    128c:	0407f793          	andi	a5,a5,64
    1290:	00078863          	beqz	a5,12a0 <button_action+0x258>
    1294:	81c1a783          	lw	a5,-2020(gp) # 10001b4 <alarm_timestamp_tmp>
    1298:	03c78713          	addi	a4,a5,60
    129c:	80e1ae23          	sw	a4,-2020(gp) # 10001b4 <alarm_timestamp_tmp>
    12a0:	fef44783          	lbu	a5,-17(s0)
    12a4:	0207f793          	andi	a5,a5,32
    12a8:	00078863          	beqz	a5,12b8 <button_action+0x270>
    12ac:	81c1a783          	lw	a5,-2020(gp) # 10001b4 <alarm_timestamp_tmp>
    12b0:	00178713          	addi	a4,a5,1
    12b4:	80e1ae23          	sw	a4,-2020(gp) # 10001b4 <alarm_timestamp_tmp>
    12b8:	fef44783          	lbu	a5,-17(s0)
    12bc:	0107f793          	andi	a5,a5,16
    12c0:	00078c63          	beqz	a5,12d8 <button_action+0x290>
    12c4:	81c1a703          	lw	a4,-2020(gp) # 10001b4 <alarm_timestamp_tmp>
    12c8:	fffff7b7          	lui	a5,0xfffff
    12cc:	1f078793          	addi	a5,a5,496 # fffff1f0 <__freertos_irq_stack_top+0xfeffb1f0>
    12d0:	00f70733          	add	a4,a4,a5
    12d4:	80e1ae23          	sw	a4,-2020(gp) # 10001b4 <alarm_timestamp_tmp>
    12d8:	fef44783          	lbu	a5,-17(s0)
    12dc:	0087f793          	andi	a5,a5,8
    12e0:	00078863          	beqz	a5,12f0 <button_action+0x2a8>
    12e4:	81c1a783          	lw	a5,-2020(gp) # 10001b4 <alarm_timestamp_tmp>
    12e8:	fc478713          	addi	a4,a5,-60
    12ec:	80e1ae23          	sw	a4,-2020(gp) # 10001b4 <alarm_timestamp_tmp>
    12f0:	fef44783          	lbu	a5,-17(s0)
    12f4:	0047f793          	andi	a5,a5,4
    12f8:	00078863          	beqz	a5,1308 <button_action+0x2c0>
    12fc:	81c1a783          	lw	a5,-2020(gp) # 10001b4 <alarm_timestamp_tmp>
    1300:	fff78713          	addi	a4,a5,-1
    1304:	80e1ae23          	sw	a4,-2020(gp) # 10001b4 <alarm_timestamp_tmp>
    1308:	81c1a703          	lw	a4,-2020(gp) # 10001b4 <alarm_timestamp_tmp>
    130c:	000157b7          	lui	a5,0x15
    1310:	18078793          	addi	a5,a5,384 # 15180 <__stack_size+0x13180>
    1314:	00f70733          	add	a4,a4,a5
    1318:	80e1ae23          	sw	a4,-2020(gp) # 10001b4 <alarm_timestamp_tmp>
    131c:	81c1a703          	lw	a4,-2020(gp) # 10001b4 <alarm_timestamp_tmp>
    1320:	000157b7          	lui	a5,0x15
    1324:	18078593          	addi	a1,a5,384 # 15180 <__stack_size+0x13180>
    1328:	00070513          	mv	a0,a4
    132c:	1a8000ef          	jal	ra,14d4 <__umodsi3>
    1330:	00050793          	mv	a5,a0
    1334:	00078713          	mv	a4,a5
    1338:	80e1ae23          	sw	a4,-2020(gp) # 10001b4 <alarm_timestamp_tmp>
    133c:	fef44783          	lbu	a5,-17(s0)
    1340:	0027f793          	andi	a5,a5,2
    1344:	00078a63          	beqz	a5,1358 <button_action+0x310>
    1348:	8001ac23          	sw	zero,-2024(gp) # 10001b0 <g_main_status>
    134c:	010007b7          	lui	a5,0x1000
    1350:	12478513          	addi	a0,a5,292 # 1000124 <_data+0x124>
    1354:	c90ff0ef          	jal	ra,7e4 <xprintf>
    1358:	fef44783          	lbu	a5,-17(s0)
    135c:	0017f793          	andi	a5,a5,1
    1360:	02078263          	beqz	a5,1384 <button_action+0x33c>
    1364:	81c1a703          	lw	a4,-2020(gp) # 10001b4 <alarm_timestamp_tmp>
    1368:	80e1aa23          	sw	a4,-2028(gp) # 10001ac <alarm_timestamp>
    136c:	8001ac23          	sw	zero,-2024(gp) # 10001b0 <g_main_status>
    1370:	010007b7          	lui	a5,0x1000
    1374:	17078513          	addi	a0,a5,368 # 1000170 <_data+0x170>
    1378:	c6cff0ef          	jal	ra,7e4 <xprintf>
    137c:	0080006f          	j	1384 <button_action+0x33c>
    1380:	00000013          	nop
    1384:	02c12083          	lw	ra,44(sp)
    1388:	02812403          	lw	s0,40(sp)
    138c:	03010113          	addi	sp,sp,48
    1390:	00008067          	ret

00001394 <timestamp_to_time>:
    1394:	fd010113          	addi	sp,sp,-48
    1398:	02112623          	sw	ra,44(sp)
    139c:	02812423          	sw	s0,40(sp)
    13a0:	03010413          	addi	s0,sp,48
    13a4:	fca42e23          	sw	a0,-36(s0)
    13a8:	fdc42703          	lw	a4,-36(s0)
    13ac:	000017b7          	lui	a5,0x1
    13b0:	e1078593          	addi	a1,a5,-496 # e10 <seg_show_tar_time+0x30>
    13b4:	00070513          	mv	a0,a4
    13b8:	0d4000ef          	jal	ra,148c <__udivsi3>
    13bc:	00050793          	mv	a5,a0
    13c0:	0ff7f793          	andi	a5,a5,255
    13c4:	fef40423          	sb	a5,-24(s0)
    13c8:	fdc42703          	lw	a4,-36(s0)
    13cc:	000017b7          	lui	a5,0x1
    13d0:	e1078593          	addi	a1,a5,-496 # e10 <seg_show_tar_time+0x30>
    13d4:	00070513          	mv	a0,a4
    13d8:	0fc000ef          	jal	ra,14d4 <__umodsi3>
    13dc:	00050793          	mv	a5,a0
    13e0:	03c00593          	li	a1,60
    13e4:	00078513          	mv	a0,a5
    13e8:	0a4000ef          	jal	ra,148c <__udivsi3>
    13ec:	00050793          	mv	a5,a0
    13f0:	0ff7f793          	andi	a5,a5,255
    13f4:	fef404a3          	sb	a5,-23(s0)
    13f8:	fdc42783          	lw	a5,-36(s0)
    13fc:	03c00593          	li	a1,60
    1400:	00078513          	mv	a0,a5
    1404:	0d0000ef          	jal	ra,14d4 <__umodsi3>
    1408:	00050793          	mv	a5,a0
    140c:	0ff7f793          	andi	a5,a5,255
    1410:	fef40523          	sb	a5,-22(s0)
    1414:	fe845783          	lhu	a5,-24(s0)
    1418:	fef41623          	sh	a5,-20(s0)
    141c:	fea44783          	lbu	a5,-22(s0)
    1420:	fef40723          	sb	a5,-18(s0)
    1424:	00000793          	li	a5,0
    1428:	fec44703          	lbu	a4,-20(s0)
    142c:	0ff77713          	andi	a4,a4,255
    1430:	f007f793          	andi	a5,a5,-256
    1434:	00e7e7b3          	or	a5,a5,a4
    1438:	fed44703          	lbu	a4,-19(s0)
    143c:	0ff77713          	andi	a4,a4,255
    1440:	00871713          	slli	a4,a4,0x8
    1444:	ffff06b7          	lui	a3,0xffff0
    1448:	0ff68693          	addi	a3,a3,255 # ffff00ff <__freertos_irq_stack_top+0xfefec0ff>
    144c:	00d7f7b3          	and	a5,a5,a3
    1450:	00e7e7b3          	or	a5,a5,a4
    1454:	fee44703          	lbu	a4,-18(s0)
    1458:	0ff77713          	andi	a4,a4,255
    145c:	01071713          	slli	a4,a4,0x10
    1460:	ff0106b7          	lui	a3,0xff010
    1464:	fff68693          	addi	a3,a3,-1 # ff00ffff <__freertos_irq_stack_top+0xfe00bfff>
    1468:	00d7f7b3          	and	a5,a5,a3
    146c:	00e7e7b3          	or	a5,a5,a4
    1470:	00078513          	mv	a0,a5
    1474:	02c12083          	lw	ra,44(sp)
    1478:	02812403          	lw	s0,40(sp)
    147c:	03010113          	addi	sp,sp,48
    1480:	00008067          	ret

00001484 <__divsi3>:
    1484:	06054063          	bltz	a0,14e4 <__umodsi3+0x10>
    1488:	0605c663          	bltz	a1,14f4 <__umodsi3+0x20>

0000148c <__udivsi3>:
    148c:	00058613          	mv	a2,a1
    1490:	00050593          	mv	a1,a0
    1494:	fff00513          	li	a0,-1
    1498:	02060c63          	beqz	a2,14d0 <__udivsi3+0x44>
    149c:	00100693          	li	a3,1
    14a0:	00b67a63          	bgeu	a2,a1,14b4 <__udivsi3+0x28>
    14a4:	00c05863          	blez	a2,14b4 <__udivsi3+0x28>
    14a8:	00161613          	slli	a2,a2,0x1
    14ac:	00169693          	slli	a3,a3,0x1
    14b0:	feb66ae3          	bltu	a2,a1,14a4 <__udivsi3+0x18>
    14b4:	00000513          	li	a0,0
    14b8:	00c5e663          	bltu	a1,a2,14c4 <__udivsi3+0x38>
    14bc:	40c585b3          	sub	a1,a1,a2
    14c0:	00d56533          	or	a0,a0,a3
    14c4:	0016d693          	srli	a3,a3,0x1
    14c8:	00165613          	srli	a2,a2,0x1
    14cc:	fe0696e3          	bnez	a3,14b8 <__udivsi3+0x2c>
    14d0:	00008067          	ret

000014d4 <__umodsi3>:
    14d4:	00008293          	mv	t0,ra
    14d8:	fb5ff0ef          	jal	ra,148c <__udivsi3>
    14dc:	00058513          	mv	a0,a1
    14e0:	00028067          	jr	t0
    14e4:	40a00533          	neg	a0,a0
    14e8:	0005d863          	bgez	a1,14f8 <__umodsi3+0x24>
    14ec:	40b005b3          	neg	a1,a1
    14f0:	f9dff06f          	j	148c <__udivsi3>
    14f4:	40b005b3          	neg	a1,a1
    14f8:	00008293          	mv	t0,ra
    14fc:	f91ff0ef          	jal	ra,148c <__udivsi3>
    1500:	40a00533          	neg	a0,a0
    1504:	00028067          	jr	t0

00001508 <__modsi3>:
    1508:	00008293          	mv	t0,ra
    150c:	0005ca63          	bltz	a1,1520 <__modsi3+0x18>
    1510:	00054c63          	bltz	a0,1528 <__modsi3+0x20>
    1514:	f79ff0ef          	jal	ra,148c <__udivsi3>
    1518:	00058513          	mv	a0,a1
    151c:	00028067          	jr	t0
    1520:	40b005b3          	neg	a1,a1
    1524:	fe0558e3          	bgez	a0,1514 <__modsi3+0xc>
    1528:	40a00533          	neg	a0,a0
    152c:	f61ff0ef          	jal	ra,148c <__udivsi3>
    1530:	40b00533          	neg	a0,a1
    1534:	00028067          	jr	t0
