
build/digital_clock_test:     file format elf32-littleriscv


Disassembly of section .init:

00000000 <_start>:
   0:	01001197          	auipc	gp,0x1001
   4:	99818193          	addi	gp,gp,-1640 # 1000998 <__global_pointer$>
   8:	01004117          	auipc	sp,0x1004
   c:	ff810113          	addi	sp,sp,-8 # 1004000 <__freertos_irq_stack_top>
  10:	00001517          	auipc	a0,0x1
  14:	52850513          	addi	a0,a0,1320 # 1538 <_data_lma>
  18:	01000597          	auipc	a1,0x1000
  1c:	fe858593          	addi	a1,a1,-24 # 1000000 <_data>
  20:	80818613          	addi	a2,gp,-2040 # 10001a0 <__bss_start>
  24:	00c5fc63          	bgeu	a1,a2,3c <_start+0x3c>
  28:	00052283          	lw	t0,0(a0)
  2c:	0055a023          	sw	t0,0(a1)
  30:	00450513          	addi	a0,a0,4
  34:	00458593          	addi	a1,a1,4
  38:	fec5e8e3          	bltu	a1,a2,28 <_start+0x28>
  3c:	80818513          	addi	a0,gp,-2040 # 10001a0 <__bss_start>
  40:	82818593          	addi	a1,gp,-2008 # 10001c0 <_end>
  44:	00b57863          	bgeu	a0,a1,54 <_start+0x54>
  48:	00052023          	sw	zero,0(a0)
  4c:	00450513          	addi	a0,a0,4
  50:	feb56ce3          	bltu	a0,a1,48 <_start+0x48>
  54:	00000517          	auipc	a0,0x0
  58:	01450513          	addi	a0,a0,20 # 68 <trap_entry>
  5c:	30551073          	csrw	mtvec,a0
  60:	130000ef          	jal	ra,190 <main>

00000064 <loop>:
  64:	0000006f          	j	64 <loop>

Disassembly of section .text:

00000068 <trap_entry>:
      68:	f8010113          	addi	sp,sp,-128
      6c:	00112223          	sw	ra,4(sp)
      70:	00212423          	sw	sp,8(sp)
      74:	00312623          	sw	gp,12(sp)
      78:	00412823          	sw	tp,16(sp)
      7c:	00512a23          	sw	t0,20(sp)
      80:	00612c23          	sw	t1,24(sp)
      84:	00712e23          	sw	t2,28(sp)
      88:	02812023          	sw	s0,32(sp)
      8c:	02912223          	sw	s1,36(sp)
      90:	02a12423          	sw	a0,40(sp)
      94:	02b12623          	sw	a1,44(sp)
      98:	02c12823          	sw	a2,48(sp)
      9c:	02d12a23          	sw	a3,52(sp)
      a0:	02e12c23          	sw	a4,56(sp)
      a4:	02f12e23          	sw	a5,60(sp)
      a8:	05012023          	sw	a6,64(sp)
      ac:	05112223          	sw	a7,68(sp)
      b0:	05212423          	sw	s2,72(sp)
      b4:	05312623          	sw	s3,76(sp)
      b8:	05412823          	sw	s4,80(sp)
      bc:	05512a23          	sw	s5,84(sp)
      c0:	05612c23          	sw	s6,88(sp)
      c4:	05712e23          	sw	s7,92(sp)
      c8:	07812023          	sw	s8,96(sp)
      cc:	07912223          	sw	s9,100(sp)
      d0:	07a12423          	sw	s10,104(sp)
      d4:	07b12623          	sw	s11,108(sp)
      d8:	07c12823          	sw	t3,112(sp)
      dc:	07d12a23          	sw	t4,116(sp)
      e0:	07e12c23          	sw	t5,120(sp)
      e4:	07f12e23          	sw	t6,124(sp)
      e8:	34202573          	csrr	a0,mcause
      ec:	341025f3          	csrr	a1,mepc

000000f0 <test_if_asynchronous>:
      f0:	01f55613          	srli	a2,a0,0x1f
      f4:	00060663          	beqz	a2,100 <handle_synchronous>
      f8:	74c000ef          	jal	ra,844 <trap_handler>
      fc:	00c0006f          	j	108 <asynchronous_return>

00000100 <handle_synchronous>:
     100:	00458593          	addi	a1,a1,4
     104:	34159073          	csrw	mepc,a1

00000108 <asynchronous_return>:
     108:	00412083          	lw	ra,4(sp)
     10c:	00812103          	lw	sp,8(sp)
     110:	00c12183          	lw	gp,12(sp)
     114:	01012203          	lw	tp,16(sp)
     118:	01412283          	lw	t0,20(sp)
     11c:	01812303          	lw	t1,24(sp)
     120:	01c12383          	lw	t2,28(sp)
     124:	02012403          	lw	s0,32(sp)
     128:	02412483          	lw	s1,36(sp)
     12c:	02812503          	lw	a0,40(sp)
     130:	02c12583          	lw	a1,44(sp)
     134:	03012603          	lw	a2,48(sp)
     138:	03412683          	lw	a3,52(sp)
     13c:	03812703          	lw	a4,56(sp)
     140:	03c12783          	lw	a5,60(sp)
     144:	04012803          	lw	a6,64(sp)
     148:	04412883          	lw	a7,68(sp)
     14c:	04812903          	lw	s2,72(sp)
     150:	04c12983          	lw	s3,76(sp)
     154:	05012a03          	lw	s4,80(sp)
     158:	05412a83          	lw	s5,84(sp)
     15c:	05812b03          	lw	s6,88(sp)
     160:	05c12b83          	lw	s7,92(sp)
     164:	06012c03          	lw	s8,96(sp)
     168:	06412c83          	lw	s9,100(sp)
     16c:	06812d03          	lw	s10,104(sp)
     170:	06c12d83          	lw	s11,108(sp)
     174:	07012e03          	lw	t3,112(sp)
     178:	07412e83          	lw	t4,116(sp)
     17c:	07812f03          	lw	t5,120(sp)
     180:	07c12f83          	lw	t6,124(sp)
     184:	08010113          	addi	sp,sp,128
     188:	30200073          	mret
     18c:	0000006f          	j	18c <asynchronous_return+0x84>

00000190 <main>:
     190:	ff010113          	addi	sp,sp,-16
     194:	00112623          	sw	ra,12(sp)
     198:	00812423          	sw	s0,8(sp)
     19c:	01010413          	addi	s0,sp,16
     1a0:	1f5000ef          	jal	ra,b94 <digital_clock_init>
     1a4:	285000ef          	jal	ra,c28 <refresh_time>
     1a8:	2b1000ef          	jal	ra,c58 <check_alarm>
     1ac:	8181a783          	lw	a5,-2024(gp) # 10001b0 <g_main_status>
     1b0:	00079a63          	bnez	a5,1c4 <main+0x34>
     1b4:	2f9000ef          	jal	ra,cac <seg_show_cur_time>
     1b8:	00000513          	li	a0,0
     1bc:	68d000ef          	jal	ra,1048 <button_action>
     1c0:	fe5ff06f          	j	1a4 <main+0x14>
     1c4:	8181a703          	lw	a4,-2024(gp) # 10001b0 <g_main_status>
     1c8:	00100793          	li	a5,1
     1cc:	00f71a63          	bne	a4,a5,1e0 <main+0x50>
     1d0:	411000ef          	jal	ra,de0 <seg_show_tar_time>
     1d4:	00100513          	li	a0,1
     1d8:	671000ef          	jal	ra,1048 <button_action>
     1dc:	fc9ff06f          	j	1a4 <main+0x14>
     1e0:	8181a703          	lw	a4,-2024(gp) # 10001b0 <g_main_status>
     1e4:	00200793          	li	a5,2
     1e8:	faf71ee3          	bne	a4,a5,1a4 <main+0x14>
     1ec:	529000ef          	jal	ra,f14 <seg_show_alarm_time>
     1f0:	00200513          	li	a0,2
     1f4:	655000ef          	jal	ra,1048 <button_action>
     1f8:	fadff06f          	j	1a4 <main+0x14>

000001fc <uart_putc>:
     1fc:	fe010113          	addi	sp,sp,-32
     200:	00812e23          	sw	s0,28(sp)
     204:	02010413          	addi	s0,sp,32
     208:	00050793          	mv	a5,a0
     20c:	fef407a3          	sb	a5,-17(s0)
     210:	00000013          	nop
     214:	020007b7          	lui	a5,0x2000
     218:	00478793          	addi	a5,a5,4 # 2000004 <__freertos_irq_stack_top+0xffc004>
     21c:	0007a783          	lw	a5,0(a5)
     220:	0017f793          	andi	a5,a5,1
     224:	fe0798e3          	bnez	a5,214 <uart_putc+0x18>
     228:	020007b7          	lui	a5,0x2000
     22c:	00c78793          	addi	a5,a5,12 # 200000c <__freertos_irq_stack_top+0xffc00c>
     230:	fef44703          	lbu	a4,-17(s0)
     234:	00e7a023          	sw	a4,0(a5)
     238:	00000013          	nop
     23c:	01c12403          	lw	s0,28(sp)
     240:	02010113          	addi	sp,sp,32
     244:	00008067          	ret

00000248 <uart_init>:
     248:	ff010113          	addi	sp,sp,-16
     24c:	00812623          	sw	s0,12(sp)
     250:	01010413          	addi	s0,sp,16
     254:	020007b7          	lui	a5,0x2000
     258:	00300713          	li	a4,3
     25c:	00e7a023          	sw	a4,0(a5) # 2000000 <__freertos_irq_stack_top+0xffc000>
     260:	00000737          	lui	a4,0x0
     264:	1fc70713          	addi	a4,a4,508 # 1fc <uart_putc>
     268:	80e1a623          	sw	a4,-2036(gp) # 10001a4 <xfunc_out>
     26c:	00000013          	nop
     270:	00c12403          	lw	s0,12(sp)
     274:	01010113          	addi	sp,sp,16
     278:	00008067          	ret

0000027c <xputc>:
     27c:	fe010113          	addi	sp,sp,-32
     280:	00112e23          	sw	ra,28(sp)
     284:	00812c23          	sw	s0,24(sp)
     288:	02010413          	addi	s0,sp,32
     28c:	00050793          	mv	a5,a0
     290:	fef407a3          	sb	a5,-17(s0)
     294:	fef44703          	lbu	a4,-17(s0)
     298:	00a00793          	li	a5,10
     29c:	00f71663          	bne	a4,a5,2a8 <xputc+0x2c>
     2a0:	00d00513          	li	a0,13
     2a4:	fd9ff0ef          	jal	ra,27c <xputc>
     2a8:	010007b7          	lui	a5,0x1000
     2ac:	1a07a783          	lw	a5,416(a5) # 10001a0 <__bss_start>
     2b0:	02078263          	beqz	a5,2d4 <xputc+0x58>
     2b4:	010007b7          	lui	a5,0x1000
     2b8:	1a07a783          	lw	a5,416(a5) # 10001a0 <__bss_start>
     2bc:	00178693          	addi	a3,a5,1
     2c0:	01000737          	lui	a4,0x1000
     2c4:	1ad72023          	sw	a3,416(a4) # 10001a0 <__bss_start>
     2c8:	fef44703          	lbu	a4,-17(s0)
     2cc:	00e78023          	sb	a4,0(a5)
     2d0:	01c0006f          	j	2ec <xputc+0x70>
     2d4:	80c1a783          	lw	a5,-2036(gp) # 10001a4 <xfunc_out>
     2d8:	00078a63          	beqz	a5,2ec <xputc+0x70>
     2dc:	80c1a703          	lw	a4,-2036(gp) # 10001a4 <xfunc_out>
     2e0:	fef44783          	lbu	a5,-17(s0)
     2e4:	00078513          	mv	a0,a5
     2e8:	000700e7          	jalr	a4
     2ec:	01c12083          	lw	ra,28(sp)
     2f0:	01812403          	lw	s0,24(sp)
     2f4:	02010113          	addi	sp,sp,32
     2f8:	00008067          	ret

000002fc <xputs>:
     2fc:	fe010113          	addi	sp,sp,-32
     300:	00112e23          	sw	ra,28(sp)
     304:	00812c23          	sw	s0,24(sp)
     308:	02010413          	addi	s0,sp,32
     30c:	fea42623          	sw	a0,-20(s0)
     310:	01c0006f          	j	32c <xputs+0x30>
     314:	fec42783          	lw	a5,-20(s0)
     318:	00178713          	addi	a4,a5,1
     31c:	fee42623          	sw	a4,-20(s0)
     320:	0007c783          	lbu	a5,0(a5)
     324:	00078513          	mv	a0,a5
     328:	f55ff0ef          	jal	ra,27c <xputc>
     32c:	fec42783          	lw	a5,-20(s0)
     330:	0007c783          	lbu	a5,0(a5)
     334:	fe0790e3          	bnez	a5,314 <xputs+0x18>
     338:	00000013          	nop
     33c:	01c12083          	lw	ra,28(sp)
     340:	01812403          	lw	s0,24(sp)
     344:	02010113          	addi	sp,sp,32
     348:	00008067          	ret

0000034c <xvprintf>:
     34c:	fb010113          	addi	sp,sp,-80
     350:	04112623          	sw	ra,76(sp)
     354:	04812423          	sw	s0,72(sp)
     358:	05010413          	addi	s0,sp,80
     35c:	faa42e23          	sw	a0,-68(s0)
     360:	fab42c23          	sw	a1,-72(s0)
     364:	fbc42783          	lw	a5,-68(s0)
     368:	00178713          	addi	a4,a5,1
     36c:	fae42e23          	sw	a4,-68(s0)
     370:	0007c783          	lbu	a5,0(a5)
     374:	fcf40ba3          	sb	a5,-41(s0)
     378:	fd744783          	lbu	a5,-41(s0)
     37c:	44078463          	beqz	a5,7c4 <xvprintf+0x478>
     380:	fd744703          	lbu	a4,-41(s0)
     384:	02500793          	li	a5,37
     388:	00f70a63          	beq	a4,a5,39c <xvprintf+0x50>
     38c:	fd744783          	lbu	a5,-41(s0)
     390:	00078513          	mv	a0,a5
     394:	ee9ff0ef          	jal	ra,27c <xputc>
     398:	4280006f          	j	7c0 <xvprintf+0x474>
     39c:	fc042e23          	sw	zero,-36(s0)
     3a0:	fbc42783          	lw	a5,-68(s0)
     3a4:	00178713          	addi	a4,a5,1
     3a8:	fae42e23          	sw	a4,-68(s0)
     3ac:	0007c783          	lbu	a5,0(a5)
     3b0:	fcf40ba3          	sb	a5,-41(s0)
     3b4:	fd744703          	lbu	a4,-41(s0)
     3b8:	03000793          	li	a5,48
     3bc:	02f71263          	bne	a4,a5,3e0 <xvprintf+0x94>
     3c0:	00100793          	li	a5,1
     3c4:	fcf42e23          	sw	a5,-36(s0)
     3c8:	fbc42783          	lw	a5,-68(s0)
     3cc:	00178713          	addi	a4,a5,1
     3d0:	fae42e23          	sw	a4,-68(s0)
     3d4:	0007c783          	lbu	a5,0(a5)
     3d8:	fcf40ba3          	sb	a5,-41(s0)
     3dc:	02c0006f          	j	408 <xvprintf+0xbc>
     3e0:	fd744703          	lbu	a4,-41(s0)
     3e4:	02d00793          	li	a5,45
     3e8:	02f71063          	bne	a4,a5,408 <xvprintf+0xbc>
     3ec:	00200793          	li	a5,2
     3f0:	fcf42e23          	sw	a5,-36(s0)
     3f4:	fbc42783          	lw	a5,-68(s0)
     3f8:	00178713          	addi	a4,a5,1
     3fc:	fae42e23          	sw	a4,-68(s0)
     400:	0007c783          	lbu	a5,0(a5)
     404:	fcf40ba3          	sb	a5,-41(s0)
     408:	fe042023          	sw	zero,-32(s0)
     40c:	0400006f          	j	44c <xvprintf+0x100>
     410:	fe042703          	lw	a4,-32(s0)
     414:	00070793          	mv	a5,a4
     418:	00279793          	slli	a5,a5,0x2
     41c:	00e787b3          	add	a5,a5,a4
     420:	00179793          	slli	a5,a5,0x1
     424:	00078713          	mv	a4,a5
     428:	fd744783          	lbu	a5,-41(s0)
     42c:	00f707b3          	add	a5,a4,a5
     430:	fd078793          	addi	a5,a5,-48
     434:	fef42023          	sw	a5,-32(s0)
     438:	fbc42783          	lw	a5,-68(s0)
     43c:	00178713          	addi	a4,a5,1
     440:	fae42e23          	sw	a4,-68(s0)
     444:	0007c783          	lbu	a5,0(a5)
     448:	fcf40ba3          	sb	a5,-41(s0)
     44c:	fd744703          	lbu	a4,-41(s0)
     450:	02f00793          	li	a5,47
     454:	00e7f863          	bgeu	a5,a4,464 <xvprintf+0x118>
     458:	fd744703          	lbu	a4,-41(s0)
     45c:	03900793          	li	a5,57
     460:	fae7f8e3          	bgeu	a5,a4,410 <xvprintf+0xc4>
     464:	fd744703          	lbu	a4,-41(s0)
     468:	06c00793          	li	a5,108
     46c:	00f70863          	beq	a4,a5,47c <xvprintf+0x130>
     470:	fd744703          	lbu	a4,-41(s0)
     474:	04c00793          	li	a5,76
     478:	02f71263          	bne	a4,a5,49c <xvprintf+0x150>
     47c:	fdc42783          	lw	a5,-36(s0)
     480:	0047e793          	ori	a5,a5,4
     484:	fcf42e23          	sw	a5,-36(s0)
     488:	fbc42783          	lw	a5,-68(s0)
     48c:	00178713          	addi	a4,a5,1
     490:	fae42e23          	sw	a4,-68(s0)
     494:	0007c783          	lbu	a5,0(a5)
     498:	fcf40ba3          	sb	a5,-41(s0)
     49c:	fd744783          	lbu	a5,-41(s0)
     4a0:	32078663          	beqz	a5,7cc <xvprintf+0x480>
     4a4:	fd744783          	lbu	a5,-41(s0)
     4a8:	fcf40b23          	sb	a5,-42(s0)
     4ac:	fd644703          	lbu	a4,-42(s0)
     4b0:	06000793          	li	a5,96
     4b4:	00e7f863          	bgeu	a5,a4,4c4 <xvprintf+0x178>
     4b8:	fd644783          	lbu	a5,-42(s0)
     4bc:	fe078793          	addi	a5,a5,-32
     4c0:	fcf40b23          	sb	a5,-42(s0)
     4c4:	fd644783          	lbu	a5,-42(s0)
     4c8:	fbe78793          	addi	a5,a5,-66
     4cc:	01600713          	li	a4,22
     4d0:	10f76063          	bltu	a4,a5,5d0 <xvprintf+0x284>
     4d4:	00279713          	slli	a4,a5,0x2
     4d8:	010007b7          	lui	a5,0x1000
     4dc:	00078793          	mv	a5,a5
     4e0:	00f707b3          	add	a5,a4,a5
     4e4:	0007a783          	lw	a5,0(a5) # 1000000 <_data>
     4e8:	00078067          	jr	a5
     4ec:	fb842783          	lw	a5,-72(s0)
     4f0:	00478713          	addi	a4,a5,4
     4f4:	fae42c23          	sw	a4,-72(s0)
     4f8:	0007a783          	lw	a5,0(a5)
     4fc:	fcf42823          	sw	a5,-48(s0)
     500:	fe042223          	sw	zero,-28(s0)
     504:	0100006f          	j	514 <xvprintf+0x1c8>
     508:	fe442783          	lw	a5,-28(s0)
     50c:	00178793          	addi	a5,a5,1
     510:	fef42223          	sw	a5,-28(s0)
     514:	fd042703          	lw	a4,-48(s0)
     518:	fe442783          	lw	a5,-28(s0)
     51c:	00f707b3          	add	a5,a4,a5
     520:	0007c783          	lbu	a5,0(a5)
     524:	fe0792e3          	bnez	a5,508 <xvprintf+0x1bc>
     528:	00c0006f          	j	534 <xvprintf+0x1e8>
     52c:	02000513          	li	a0,32
     530:	d4dff0ef          	jal	ra,27c <xputc>
     534:	fdc42783          	lw	a5,-36(s0)
     538:	0027f793          	andi	a5,a5,2
     53c:	00079c63          	bnez	a5,554 <xvprintf+0x208>
     540:	fe442783          	lw	a5,-28(s0)
     544:	00178713          	addi	a4,a5,1
     548:	fee42223          	sw	a4,-28(s0)
     54c:	fe042703          	lw	a4,-32(s0)
     550:	fce7eee3          	bltu	a5,a4,52c <xvprintf+0x1e0>
     554:	fd042503          	lw	a0,-48(s0)
     558:	da5ff0ef          	jal	ra,2fc <xputs>
     55c:	00c0006f          	j	568 <xvprintf+0x21c>
     560:	02000513          	li	a0,32
     564:	d19ff0ef          	jal	ra,27c <xputc>
     568:	fe442783          	lw	a5,-28(s0)
     56c:	00178713          	addi	a4,a5,1
     570:	fee42223          	sw	a4,-28(s0)
     574:	fe042703          	lw	a4,-32(s0)
     578:	fee7e4e3          	bltu	a5,a4,560 <xvprintf+0x214>
     57c:	2440006f          	j	7c0 <xvprintf+0x474>
     580:	fb842783          	lw	a5,-72(s0)
     584:	00478713          	addi	a4,a5,4
     588:	fae42c23          	sw	a4,-72(s0)
     58c:	0007a783          	lw	a5,0(a5)
     590:	0ff7f793          	andi	a5,a5,255
     594:	00078513          	mv	a0,a5
     598:	ce5ff0ef          	jal	ra,27c <xputc>
     59c:	2240006f          	j	7c0 <xvprintf+0x474>
     5a0:	00200793          	li	a5,2
     5a4:	fef42623          	sw	a5,-20(s0)
     5a8:	0380006f          	j	5e0 <xvprintf+0x294>
     5ac:	00800793          	li	a5,8
     5b0:	fef42623          	sw	a5,-20(s0)
     5b4:	02c0006f          	j	5e0 <xvprintf+0x294>
     5b8:	00a00793          	li	a5,10
     5bc:	fef42623          	sw	a5,-20(s0)
     5c0:	0200006f          	j	5e0 <xvprintf+0x294>
     5c4:	01000793          	li	a5,16
     5c8:	fef42623          	sw	a5,-20(s0)
     5cc:	0140006f          	j	5e0 <xvprintf+0x294>
     5d0:	fd744783          	lbu	a5,-41(s0)
     5d4:	00078513          	mv	a0,a5
     5d8:	ca5ff0ef          	jal	ra,27c <xputc>
     5dc:	1e40006f          	j	7c0 <xvprintf+0x474>
     5e0:	fdc42783          	lw	a5,-36(s0)
     5e4:	0047f793          	andi	a5,a5,4
     5e8:	00078c63          	beqz	a5,600 <xvprintf+0x2b4>
     5ec:	fb842783          	lw	a5,-72(s0)
     5f0:	00478713          	addi	a4,a5,4
     5f4:	fae42c23          	sw	a4,-72(s0)
     5f8:	0007a783          	lw	a5,0(a5)
     5fc:	0340006f          	j	630 <xvprintf+0x2e4>
     600:	fd644703          	lbu	a4,-42(s0)
     604:	04400793          	li	a5,68
     608:	00f71c63          	bne	a4,a5,620 <xvprintf+0x2d4>
     60c:	fb842783          	lw	a5,-72(s0)
     610:	00478713          	addi	a4,a5,4
     614:	fae42c23          	sw	a4,-72(s0)
     618:	0007a783          	lw	a5,0(a5)
     61c:	0140006f          	j	630 <xvprintf+0x2e4>
     620:	fb842783          	lw	a5,-72(s0)
     624:	00478713          	addi	a4,a5,4
     628:	fae42c23          	sw	a4,-72(s0)
     62c:	0007a783          	lw	a5,0(a5)
     630:	fcf42c23          	sw	a5,-40(s0)
     634:	fd644703          	lbu	a4,-42(s0)
     638:	04400793          	li	a5,68
     63c:	02f71263          	bne	a4,a5,660 <xvprintf+0x314>
     640:	fd842783          	lw	a5,-40(s0)
     644:	0007de63          	bgez	a5,660 <xvprintf+0x314>
     648:	fd842783          	lw	a5,-40(s0)
     64c:	40f007b3          	neg	a5,a5
     650:	fcf42c23          	sw	a5,-40(s0)
     654:	fdc42783          	lw	a5,-36(s0)
     658:	0087e793          	ori	a5,a5,8
     65c:	fcf42e23          	sw	a5,-36(s0)
     660:	fe042423          	sw	zero,-24(s0)
     664:	fd842783          	lw	a5,-40(s0)
     668:	fec42583          	lw	a1,-20(s0)
     66c:	00078513          	mv	a0,a5
     670:	665000ef          	jal	ra,14d4 <__umodsi3>
     674:	00050793          	mv	a5,a0
     678:	fcf40b23          	sb	a5,-42(s0)
     67c:	fec42583          	lw	a1,-20(s0)
     680:	fd842503          	lw	a0,-40(s0)
     684:	609000ef          	jal	ra,148c <__udivsi3>
     688:	00050793          	mv	a5,a0
     68c:	fcf42c23          	sw	a5,-40(s0)
     690:	fd644703          	lbu	a4,-42(s0)
     694:	00900793          	li	a5,9
     698:	02e7f463          	bgeu	a5,a4,6c0 <xvprintf+0x374>
     69c:	fd744703          	lbu	a4,-41(s0)
     6a0:	07800793          	li	a5,120
     6a4:	00f71663          	bne	a4,a5,6b0 <xvprintf+0x364>
     6a8:	02700793          	li	a5,39
     6ac:	0080006f          	j	6b4 <xvprintf+0x368>
     6b0:	00700793          	li	a5,7
     6b4:	fd644703          	lbu	a4,-42(s0)
     6b8:	00e787b3          	add	a5,a5,a4
     6bc:	fcf40b23          	sb	a5,-42(s0)
     6c0:	fe842783          	lw	a5,-24(s0)
     6c4:	00178713          	addi	a4,a5,1
     6c8:	fee42423          	sw	a4,-24(s0)
     6cc:	fd644703          	lbu	a4,-42(s0)
     6d0:	03070713          	addi	a4,a4,48
     6d4:	0ff77713          	andi	a4,a4,255
     6d8:	ff040693          	addi	a3,s0,-16
     6dc:	00f687b3          	add	a5,a3,a5
     6e0:	fce78823          	sb	a4,-48(a5)
     6e4:	fd842783          	lw	a5,-40(s0)
     6e8:	00078863          	beqz	a5,6f8 <xvprintf+0x3ac>
     6ec:	fe842703          	lw	a4,-24(s0)
     6f0:	00f00793          	li	a5,15
     6f4:	f6e7f8e3          	bgeu	a5,a4,664 <xvprintf+0x318>
     6f8:	fdc42783          	lw	a5,-36(s0)
     6fc:	0087f793          	andi	a5,a5,8
     700:	02078063          	beqz	a5,720 <xvprintf+0x3d4>
     704:	fe842783          	lw	a5,-24(s0)
     708:	00178713          	addi	a4,a5,1
     70c:	fee42423          	sw	a4,-24(s0)
     710:	ff040713          	addi	a4,s0,-16
     714:	00f707b3          	add	a5,a4,a5
     718:	02d00713          	li	a4,45
     71c:	fce78823          	sb	a4,-48(a5)
     720:	fe842783          	lw	a5,-24(s0)
     724:	fef42223          	sw	a5,-28(s0)
     728:	fdc42783          	lw	a5,-36(s0)
     72c:	0017f793          	andi	a5,a5,1
     730:	00078663          	beqz	a5,73c <xvprintf+0x3f0>
     734:	03000793          	li	a5,48
     738:	0080006f          	j	740 <xvprintf+0x3f4>
     73c:	02000793          	li	a5,32
     740:	fcf40b23          	sb	a5,-42(s0)
     744:	0100006f          	j	754 <xvprintf+0x408>
     748:	fd644783          	lbu	a5,-42(s0)
     74c:	00078513          	mv	a0,a5
     750:	b2dff0ef          	jal	ra,27c <xputc>
     754:	fdc42783          	lw	a5,-36(s0)
     758:	0027f793          	andi	a5,a5,2
     75c:	00079c63          	bnez	a5,774 <xvprintf+0x428>
     760:	fe442783          	lw	a5,-28(s0)
     764:	00178713          	addi	a4,a5,1
     768:	fee42223          	sw	a4,-28(s0)
     76c:	fe042703          	lw	a4,-32(s0)
     770:	fce7ece3          	bltu	a5,a4,748 <xvprintf+0x3fc>
     774:	fe842783          	lw	a5,-24(s0)
     778:	fff78793          	addi	a5,a5,-1
     77c:	fef42423          	sw	a5,-24(s0)
     780:	fe842783          	lw	a5,-24(s0)
     784:	ff040713          	addi	a4,s0,-16
     788:	00f707b3          	add	a5,a4,a5
     78c:	fd07c783          	lbu	a5,-48(a5)
     790:	00078513          	mv	a0,a5
     794:	ae9ff0ef          	jal	ra,27c <xputc>
     798:	fe842783          	lw	a5,-24(s0)
     79c:	fc079ce3          	bnez	a5,774 <xvprintf+0x428>
     7a0:	00c0006f          	j	7ac <xvprintf+0x460>
     7a4:	02000513          	li	a0,32
     7a8:	ad5ff0ef          	jal	ra,27c <xputc>
     7ac:	fe442783          	lw	a5,-28(s0)
     7b0:	00178713          	addi	a4,a5,1
     7b4:	fee42223          	sw	a4,-28(s0)
     7b8:	fe042703          	lw	a4,-32(s0)
     7bc:	fee7e4e3          	bltu	a5,a4,7a4 <xvprintf+0x458>
     7c0:	ba5ff06f          	j	364 <xvprintf+0x18>
     7c4:	00000013          	nop
     7c8:	0080006f          	j	7d0 <xvprintf+0x484>
     7cc:	00000013          	nop
     7d0:	00000013          	nop
     7d4:	04c12083          	lw	ra,76(sp)
     7d8:	04812403          	lw	s0,72(sp)
     7dc:	05010113          	addi	sp,sp,80
     7e0:	00008067          	ret

000007e4 <xprintf>:
     7e4:	fb010113          	addi	sp,sp,-80
     7e8:	02112623          	sw	ra,44(sp)
     7ec:	02812423          	sw	s0,40(sp)
     7f0:	03010413          	addi	s0,sp,48
     7f4:	fca42e23          	sw	a0,-36(s0)
     7f8:	00b42223          	sw	a1,4(s0)
     7fc:	00c42423          	sw	a2,8(s0)
     800:	00d42623          	sw	a3,12(s0)
     804:	00e42823          	sw	a4,16(s0)
     808:	00f42a23          	sw	a5,20(s0)
     80c:	01042c23          	sw	a6,24(s0)
     810:	01142e23          	sw	a7,28(s0)
     814:	02040793          	addi	a5,s0,32
     818:	fe478793          	addi	a5,a5,-28
     81c:	fef42623          	sw	a5,-20(s0)
     820:	fec42783          	lw	a5,-20(s0)
     824:	00078593          	mv	a1,a5
     828:	fdc42503          	lw	a0,-36(s0)
     82c:	b21ff0ef          	jal	ra,34c <xvprintf>
     830:	00000013          	nop
     834:	02c12083          	lw	ra,44(sp)
     838:	02812403          	lw	s0,40(sp)
     83c:	05010113          	addi	sp,sp,80
     840:	00008067          	ret

00000844 <trap_handler>:
     844:	fe010113          	addi	sp,sp,-32
     848:	00812e23          	sw	s0,28(sp)
     84c:	02010413          	addi	s0,sp,32
     850:	fea42623          	sw	a0,-20(s0)
     854:	feb42423          	sw	a1,-24(s0)
     858:	00000013          	nop
     85c:	01c12403          	lw	s0,28(sp)
     860:	02010113          	addi	sp,sp,32
     864:	00008067          	ret

00000868 <set_static_seg>:
     868:	fe010113          	addi	sp,sp,-32
     86c:	00812e23          	sw	s0,28(sp)
     870:	02010413          	addi	s0,sp,32
     874:	00050793          	mv	a5,a0
     878:	fef407a3          	sb	a5,-17(s0)
     87c:	030007b7          	lui	a5,0x3000
     880:	00878793          	addi	a5,a5,8 # 3000008 <__freertos_irq_stack_top+0x1ffc008>
     884:	fef44703          	lbu	a4,-17(s0)
     888:	00e7a023          	sw	a4,0(a5)
     88c:	00000013          	nop
     890:	01c12403          	lw	s0,28(sp)
     894:	02010113          	addi	sp,sp,32
     898:	00008067          	ret

0000089c <set_scan_seg_num>:
     89c:	fd010113          	addi	sp,sp,-48
     8a0:	02812623          	sw	s0,44(sp)
     8a4:	03010413          	addi	s0,sp,48
     8a8:	00050793          	mv	a5,a0
     8ac:	00058713          	mv	a4,a1
     8b0:	fcf40fa3          	sb	a5,-33(s0)
     8b4:	00070793          	mv	a5,a4
     8b8:	fcf40f23          	sb	a5,-34(s0)
     8bc:	030007b7          	lui	a5,0x3000
     8c0:	00478793          	addi	a5,a5,4 # 3000004 <__freertos_irq_stack_top+0x1ffc004>
     8c4:	0007a783          	lw	a5,0(a5)
     8c8:	fef42623          	sw	a5,-20(s0)
     8cc:	00f00793          	li	a5,15
     8d0:	fef42423          	sw	a5,-24(s0)
     8d4:	fdf44783          	lbu	a5,-33(s0)
     8d8:	00379793          	slli	a5,a5,0x3
     8dc:	fe842703          	lw	a4,-24(s0)
     8e0:	00f717b3          	sll	a5,a4,a5
     8e4:	fef42423          	sw	a5,-24(s0)
     8e8:	fe842783          	lw	a5,-24(s0)
     8ec:	fff7c793          	not	a5,a5
     8f0:	fef42423          	sw	a5,-24(s0)
     8f4:	fec42703          	lw	a4,-20(s0)
     8f8:	fe842783          	lw	a5,-24(s0)
     8fc:	00f777b3          	and	a5,a4,a5
     900:	fef42623          	sw	a5,-20(s0)
     904:	fde44783          	lbu	a5,-34(s0)
     908:	00f7f713          	andi	a4,a5,15
     90c:	fdf44783          	lbu	a5,-33(s0)
     910:	00379793          	slli	a5,a5,0x3
     914:	00f717b3          	sll	a5,a4,a5
     918:	fec42703          	lw	a4,-20(s0)
     91c:	00f767b3          	or	a5,a4,a5
     920:	fef42623          	sw	a5,-20(s0)
     924:	030007b7          	lui	a5,0x3000
     928:	00478793          	addi	a5,a5,4 # 3000004 <__freertos_irq_stack_top+0x1ffc004>
     92c:	fec42703          	lw	a4,-20(s0)
     930:	00e7a023          	sw	a4,0(a5)
     934:	00000013          	nop
     938:	02c12403          	lw	s0,44(sp)
     93c:	03010113          	addi	sp,sp,48
     940:	00008067          	ret

00000944 <set_scan_seg_state>:
     944:	fd010113          	addi	sp,sp,-48
     948:	02812623          	sw	s0,44(sp)
     94c:	03010413          	addi	s0,sp,48
     950:	00050793          	mv	a5,a0
     954:	00058713          	mv	a4,a1
     958:	fcf40fa3          	sb	a5,-33(s0)
     95c:	00070793          	mv	a5,a4
     960:	fcf40f23          	sb	a5,-34(s0)
     964:	030007b7          	lui	a5,0x3000
     968:	00478793          	addi	a5,a5,4 # 3000004 <__freertos_irq_stack_top+0x1ffc004>
     96c:	0007a783          	lw	a5,0(a5)
     970:	fef42623          	sw	a5,-20(s0)
     974:	0f000793          	li	a5,240
     978:	fef42423          	sw	a5,-24(s0)
     97c:	fdf44783          	lbu	a5,-33(s0)
     980:	00379793          	slli	a5,a5,0x3
     984:	fe842703          	lw	a4,-24(s0)
     988:	00f717b3          	sll	a5,a4,a5
     98c:	fef42423          	sw	a5,-24(s0)
     990:	fe842783          	lw	a5,-24(s0)
     994:	fff7c793          	not	a5,a5
     998:	fef42423          	sw	a5,-24(s0)
     99c:	fec42703          	lw	a4,-20(s0)
     9a0:	fe842783          	lw	a5,-24(s0)
     9a4:	00f777b3          	and	a5,a4,a5
     9a8:	fef42623          	sw	a5,-20(s0)
     9ac:	fde44783          	lbu	a5,-34(s0)
     9b0:	00479793          	slli	a5,a5,0x4
     9b4:	0ff7f713          	andi	a4,a5,255
     9b8:	fdf44783          	lbu	a5,-33(s0)
     9bc:	00379793          	slli	a5,a5,0x3
     9c0:	00f717b3          	sll	a5,a4,a5
     9c4:	fec42703          	lw	a4,-20(s0)
     9c8:	00f767b3          	or	a5,a4,a5
     9cc:	fef42623          	sw	a5,-20(s0)
     9d0:	030007b7          	lui	a5,0x3000
     9d4:	00478793          	addi	a5,a5,4 # 3000004 <__freertos_irq_stack_top+0x1ffc004>
     9d8:	fec42703          	lw	a4,-20(s0)
     9dc:	00e7a023          	sw	a4,0(a5)
     9e0:	00000013          	nop
     9e4:	02c12403          	lw	s0,44(sp)
     9e8:	03010113          	addi	sp,sp,48
     9ec:	00008067          	ret

000009f0 <get_sec_clock_run_time>:
     9f0:	ff010113          	addi	sp,sp,-16
     9f4:	00812623          	sw	s0,12(sp)
     9f8:	01010413          	addi	s0,sp,16
     9fc:	040007b7          	lui	a5,0x4000
     a00:	00478793          	addi	a5,a5,4 # 4000004 <__freertos_irq_stack_top+0x2ffc004>
     a04:	0007a783          	lw	a5,0(a5)
     a08:	00078513          	mv	a0,a5
     a0c:	00c12403          	lw	s0,12(sp)
     a10:	01010113          	addi	sp,sp,16
     a14:	00008067          	ret

00000a18 <sec_clock_clr>:
     a18:	ff010113          	addi	sp,sp,-16
     a1c:	00812623          	sw	s0,12(sp)
     a20:	01010413          	addi	s0,sp,16
     a24:	040007b7          	lui	a5,0x4000
     a28:	00878793          	addi	a5,a5,8 # 4000008 <__freertos_irq_stack_top+0x2ffc008>
     a2c:	00100713          	li	a4,1
     a30:	00e7a023          	sw	a4,0(a5)
     a34:	00000013          	nop
     a38:	00c12403          	lw	s0,12(sp)
     a3c:	01010113          	addi	sp,sp,16
     a40:	00008067          	ret

00000a44 <set_sec_clock_init_time>:
     a44:	fe010113          	addi	sp,sp,-32
     a48:	00112e23          	sw	ra,28(sp)
     a4c:	00812c23          	sw	s0,24(sp)
     a50:	02010413          	addi	s0,sp,32
     a54:	fea42623          	sw	a0,-20(s0)
     a58:	040007b7          	lui	a5,0x4000
     a5c:	00c78793          	addi	a5,a5,12 # 400000c <__freertos_irq_stack_top+0x2ffc00c>
     a60:	fec42703          	lw	a4,-20(s0)
     a64:	00e7a023          	sw	a4,0(a5)
     a68:	fb1ff0ef          	jal	ra,a18 <sec_clock_clr>
     a6c:	00000013          	nop
     a70:	01c12083          	lw	ra,28(sp)
     a74:	01812403          	lw	s0,24(sp)
     a78:	02010113          	addi	sp,sp,32
     a7c:	00008067          	ret

00000a80 <get_sec_clock_init_time>:
     a80:	ff010113          	addi	sp,sp,-16
     a84:	00812623          	sw	s0,12(sp)
     a88:	01010413          	addi	s0,sp,16
     a8c:	040007b7          	lui	a5,0x4000
     a90:	00c78793          	addi	a5,a5,12 # 400000c <__freertos_irq_stack_top+0x2ffc00c>
     a94:	0007a783          	lw	a5,0(a5)
     a98:	00078513          	mv	a0,a5
     a9c:	00c12403          	lw	s0,12(sp)
     aa0:	01010113          	addi	sp,sp,16
     aa4:	00008067          	ret

00000aa8 <get_sec_clock_cur_time>:
     aa8:	ff010113          	addi	sp,sp,-16
     aac:	00112623          	sw	ra,12(sp)
     ab0:	00812423          	sw	s0,8(sp)
     ab4:	00912223          	sw	s1,4(sp)
     ab8:	01010413          	addi	s0,sp,16
     abc:	fc5ff0ef          	jal	ra,a80 <get_sec_clock_init_time>
     ac0:	00050493          	mv	s1,a0
     ac4:	f2dff0ef          	jal	ra,9f0 <get_sec_clock_run_time>
     ac8:	00050793          	mv	a5,a0
     acc:	00f48733          	add	a4,s1,a5
     ad0:	000157b7          	lui	a5,0x15
     ad4:	18078793          	addi	a5,a5,384 # 15180 <__stack_size+0x13180>
     ad8:	00f70733          	add	a4,a4,a5
     adc:	000157b7          	lui	a5,0x15
     ae0:	18078593          	addi	a1,a5,384 # 15180 <__stack_size+0x13180>
     ae4:	00070513          	mv	a0,a4
     ae8:	1ed000ef          	jal	ra,14d4 <__umodsi3>
     aec:	00050793          	mv	a5,a0
     af0:	00078513          	mv	a0,a5
     af4:	00c12083          	lw	ra,12(sp)
     af8:	00812403          	lw	s0,8(sp)
     afc:	00412483          	lw	s1,4(sp)
     b00:	01010113          	addi	sp,sp,16
     b04:	00008067          	ret

00000b08 <refresh_button_level>:
     b08:	ff010113          	addi	sp,sp,-16
     b0c:	00812623          	sw	s0,12(sp)
     b10:	01010413          	addi	s0,sp,16
     b14:	010007b7          	lui	a5,0x1000
     b18:	1997c703          	lbu	a4,409(a5) # 1000199 <cur_button_level>
     b1c:	010007b7          	lui	a5,0x1000
     b20:	18e78c23          	sb	a4,408(a5) # 1000198 <pre_button_level>
     b24:	050007b7          	lui	a5,0x5000
     b28:	00478793          	addi	a5,a5,4 # 5000004 <__freertos_irq_stack_top+0x3ffc004>
     b2c:	0007a783          	lw	a5,0(a5)
     b30:	0ff7f713          	andi	a4,a5,255
     b34:	010007b7          	lui	a5,0x1000
     b38:	18e78ca3          	sb	a4,409(a5) # 1000199 <cur_button_level>
     b3c:	00000013          	nop
     b40:	00c12403          	lw	s0,12(sp)
     b44:	01010113          	addi	sp,sp,16
     b48:	00008067          	ret

00000b4c <detect_falling>:
     b4c:	ff010113          	addi	sp,sp,-16
     b50:	00112623          	sw	ra,12(sp)
     b54:	00812423          	sw	s0,8(sp)
     b58:	01010413          	addi	s0,sp,16
     b5c:	fadff0ef          	jal	ra,b08 <refresh_button_level>
     b60:	010007b7          	lui	a5,0x1000
     b64:	1997c783          	lbu	a5,409(a5) # 1000199 <cur_button_level>
     b68:	fff7c793          	not	a5,a5
     b6c:	0ff7f713          	andi	a4,a5,255
     b70:	010007b7          	lui	a5,0x1000
     b74:	1987c783          	lbu	a5,408(a5) # 1000198 <pre_button_level>
     b78:	00f777b3          	and	a5,a4,a5
     b7c:	0ff7f793          	andi	a5,a5,255
     b80:	00078513          	mv	a0,a5
     b84:	00c12083          	lw	ra,12(sp)
     b88:	00812403          	lw	s0,8(sp)
     b8c:	01010113          	addi	sp,sp,16
     b90:	00008067          	ret

00000b94 <digital_clock_init>:
     b94:	fe010113          	addi	sp,sp,-32
     b98:	00112e23          	sw	ra,28(sp)
     b9c:	00812c23          	sw	s0,24(sp)
     ba0:	02010413          	addi	s0,sp,32
     ba4:	ea4ff0ef          	jal	ra,248 <uart_init>
     ba8:	fe042623          	sw	zero,-20(s0)
     bac:	0380006f          	j	be4 <digital_clock_init+0x50>
     bb0:	fec42783          	lw	a5,-20(s0)
     bb4:	0ff7f793          	andi	a5,a5,255
     bb8:	00800593          	li	a1,8
     bbc:	00078513          	mv	a0,a5
     bc0:	d85ff0ef          	jal	ra,944 <set_scan_seg_state>
     bc4:	fec42783          	lw	a5,-20(s0)
     bc8:	0ff7f793          	andi	a5,a5,255
     bcc:	00000593          	li	a1,0
     bd0:	00078513          	mv	a0,a5
     bd4:	cc9ff0ef          	jal	ra,89c <set_scan_seg_num>
     bd8:	fec42783          	lw	a5,-20(s0)
     bdc:	00178793          	addi	a5,a5,1
     be0:	fef42623          	sw	a5,-20(s0)
     be4:	fec42703          	lw	a4,-20(s0)
     be8:	00300793          	li	a5,3
     bec:	fce7d2e3          	bge	a5,a4,bb0 <digital_clock_init+0x1c>
     bf0:	00c00593          	li	a1,12
     bf4:	00100513          	li	a0,1
     bf8:	d4dff0ef          	jal	ra,944 <set_scan_seg_state>
     bfc:	00000513          	li	a0,0
     c00:	c69ff0ef          	jal	ra,868 <set_static_seg>
     c04:	00000513          	li	a0,0
     c08:	e3dff0ef          	jal	ra,a44 <set_sec_clock_init_time>
     c0c:	82018223          	sb	zero,-2012(gp) # 10001bc <alarm_enable>
     c10:	820182a3          	sb	zero,-2011(gp) # 10001bd <alarm_triggle>
     c14:	00000013          	nop
     c18:	01c12083          	lw	ra,28(sp)
     c1c:	01812403          	lw	s0,24(sp)
     c20:	02010113          	addi	sp,sp,32
     c24:	00008067          	ret

00000c28 <refresh_time>:
     c28:	ff010113          	addi	sp,sp,-16
     c2c:	00112623          	sw	ra,12(sp)
     c30:	00812423          	sw	s0,8(sp)
     c34:	01010413          	addi	s0,sp,16
     c38:	e71ff0ef          	jal	ra,aa8 <get_sec_clock_cur_time>
     c3c:	00050713          	mv	a4,a0
     c40:	82e1a023          	sw	a4,-2016(gp) # 10001b8 <cur_timestamp>
     c44:	00000013          	nop
     c48:	00c12083          	lw	ra,12(sp)
     c4c:	00812403          	lw	s0,8(sp)
     c50:	01010113          	addi	sp,sp,16
     c54:	00008067          	ret

00000c58 <check_alarm>:
     c58:	ff010113          	addi	sp,sp,-16
     c5c:	00112623          	sw	ra,12(sp)
     c60:	00812423          	sw	s0,8(sp)
     c64:	01010413          	addi	s0,sp,16
     c68:	8241c783          	lbu	a5,-2012(gp) # 10001bc <alarm_enable>
     c6c:	00078c63          	beqz	a5,c84 <check_alarm+0x2c>
     c70:	8141a703          	lw	a4,-2028(gp) # 10001ac <alarm_timestamp>
     c74:	8201a783          	lw	a5,-2016(gp) # 10001b8 <cur_timestamp>
     c78:	00f71663          	bne	a4,a5,c84 <check_alarm+0x2c>
     c7c:	00100713          	li	a4,1
     c80:	82e182a3          	sb	a4,-2011(gp) # 10001bd <alarm_triggle>
     c84:	8251c783          	lbu	a5,-2011(gp) # 10001bd <alarm_triggle>
     c88:	00078863          	beqz	a5,c98 <check_alarm+0x40>
     c8c:	010007b7          	lui	a5,0x1000
     c90:	05c78513          	addi	a0,a5,92 # 100005c <_data+0x5c>
     c94:	b51ff0ef          	jal	ra,7e4 <xprintf>
     c98:	00000013          	nop
     c9c:	00c12083          	lw	ra,12(sp)
     ca0:	00812403          	lw	s0,8(sp)
     ca4:	01010113          	addi	sp,sp,16
     ca8:	00008067          	ret

00000cac <seg_show_cur_time>:
     cac:	fe010113          	addi	sp,sp,-32
     cb0:	00112e23          	sw	ra,28(sp)
     cb4:	00812c23          	sw	s0,24(sp)
     cb8:	00912a23          	sw	s1,20(sp)
     cbc:	02010413          	addi	s0,sp,32
     cc0:	8201a783          	lw	a5,-2016(gp) # 10001b8 <cur_timestamp>
     cc4:	00078513          	mv	a0,a5
     cc8:	6cc000ef          	jal	ra,1394 <timestamp_to_time>
     ccc:	00050793          	mv	a5,a0
     cd0:	fef40623          	sb	a5,-20(s0)
     cd4:	0087d713          	srli	a4,a5,0x8
     cd8:	fff77713          	andi	a4,a4,-1
     cdc:	fee406a3          	sb	a4,-19(s0)
     ce0:	0107d793          	srli	a5,a5,0x10
     ce4:	fff7f793          	andi	a5,a5,-1
     ce8:	fef40723          	sb	a5,-18(s0)
     cec:	fec44783          	lbu	a5,-20(s0)
     cf0:	00a00593          	li	a1,10
     cf4:	00078513          	mv	a0,a5
     cf8:	794000ef          	jal	ra,148c <__udivsi3>
     cfc:	00050793          	mv	a5,a0
     d00:	0ff7f793          	andi	a5,a5,255
     d04:	00078593          	mv	a1,a5
     d08:	00000513          	li	a0,0
     d0c:	b91ff0ef          	jal	ra,89c <set_scan_seg_num>
     d10:	fec44783          	lbu	a5,-20(s0)
     d14:	00a00593          	li	a1,10
     d18:	00078513          	mv	a0,a5
     d1c:	7b8000ef          	jal	ra,14d4 <__umodsi3>
     d20:	00050793          	mv	a5,a0
     d24:	0ff7f793          	andi	a5,a5,255
     d28:	00078593          	mv	a1,a5
     d2c:	00100513          	li	a0,1
     d30:	b6dff0ef          	jal	ra,89c <set_scan_seg_num>
     d34:	fed44783          	lbu	a5,-19(s0)
     d38:	00a00593          	li	a1,10
     d3c:	00078513          	mv	a0,a5
     d40:	74c000ef          	jal	ra,148c <__udivsi3>
     d44:	00050793          	mv	a5,a0
     d48:	0ff7f793          	andi	a5,a5,255
     d4c:	00078593          	mv	a1,a5
     d50:	00200513          	li	a0,2
     d54:	b49ff0ef          	jal	ra,89c <set_scan_seg_num>
     d58:	fed44783          	lbu	a5,-19(s0)
     d5c:	00a00593          	li	a1,10
     d60:	00078513          	mv	a0,a5
     d64:	770000ef          	jal	ra,14d4 <__umodsi3>
     d68:	00050793          	mv	a5,a0
     d6c:	0ff7f793          	andi	a5,a5,255
     d70:	00078593          	mv	a1,a5
     d74:	00300513          	li	a0,3
     d78:	b25ff0ef          	jal	ra,89c <set_scan_seg_num>
     d7c:	fee44783          	lbu	a5,-18(s0)
     d80:	00a00593          	li	a1,10
     d84:	00078513          	mv	a0,a5
     d88:	74c000ef          	jal	ra,14d4 <__umodsi3>
     d8c:	00050793          	mv	a5,a0
     d90:	0ff7f493          	andi	s1,a5,255
     d94:	fee44783          	lbu	a5,-18(s0)
     d98:	00a00593          	li	a1,10
     d9c:	00078513          	mv	a0,a5
     da0:	6ec000ef          	jal	ra,148c <__udivsi3>
     da4:	00050793          	mv	a5,a0
     da8:	0ff7f793          	andi	a5,a5,255
     dac:	00479793          	slli	a5,a5,0x4
     db0:	0ff7f793          	andi	a5,a5,255
     db4:	00f487b3          	add	a5,s1,a5
     db8:	fef407a3          	sb	a5,-17(s0)
     dbc:	fef44783          	lbu	a5,-17(s0)
     dc0:	00078513          	mv	a0,a5
     dc4:	aa5ff0ef          	jal	ra,868 <set_static_seg>
     dc8:	00000013          	nop
     dcc:	01c12083          	lw	ra,28(sp)
     dd0:	01812403          	lw	s0,24(sp)
     dd4:	01412483          	lw	s1,20(sp)
     dd8:	02010113          	addi	sp,sp,32
     ddc:	00008067          	ret

00000de0 <seg_show_tar_time>:
     de0:	fe010113          	addi	sp,sp,-32
     de4:	00112e23          	sw	ra,28(sp)
     de8:	00812c23          	sw	s0,24(sp)
     dec:	00912a23          	sw	s1,20(sp)
     df0:	02010413          	addi	s0,sp,32
     df4:	8101a783          	lw	a5,-2032(gp) # 10001a8 <tar_timestamp>
     df8:	00078513          	mv	a0,a5
     dfc:	598000ef          	jal	ra,1394 <timestamp_to_time>
     e00:	00050793          	mv	a5,a0
     e04:	fef40623          	sb	a5,-20(s0)
     e08:	0087d713          	srli	a4,a5,0x8
     e0c:	fff77713          	andi	a4,a4,-1
     e10:	fee406a3          	sb	a4,-19(s0)
     e14:	0107d793          	srli	a5,a5,0x10
     e18:	fff7f793          	andi	a5,a5,-1
     e1c:	fef40723          	sb	a5,-18(s0)
     e20:	fec44783          	lbu	a5,-20(s0)
     e24:	00a00593          	li	a1,10
     e28:	00078513          	mv	a0,a5
     e2c:	660000ef          	jal	ra,148c <__udivsi3>
     e30:	00050793          	mv	a5,a0
     e34:	0ff7f793          	andi	a5,a5,255
     e38:	00078593          	mv	a1,a5
     e3c:	00000513          	li	a0,0
     e40:	a5dff0ef          	jal	ra,89c <set_scan_seg_num>
     e44:	fec44783          	lbu	a5,-20(s0)
     e48:	00a00593          	li	a1,10
     e4c:	00078513          	mv	a0,a5
     e50:	684000ef          	jal	ra,14d4 <__umodsi3>
     e54:	00050793          	mv	a5,a0
     e58:	0ff7f793          	andi	a5,a5,255
     e5c:	00078593          	mv	a1,a5
     e60:	00100513          	li	a0,1
     e64:	a39ff0ef          	jal	ra,89c <set_scan_seg_num>
     e68:	fed44783          	lbu	a5,-19(s0)
     e6c:	00a00593          	li	a1,10
     e70:	00078513          	mv	a0,a5
     e74:	618000ef          	jal	ra,148c <__udivsi3>
     e78:	00050793          	mv	a5,a0
     e7c:	0ff7f793          	andi	a5,a5,255
     e80:	00078593          	mv	a1,a5
     e84:	00200513          	li	a0,2
     e88:	a15ff0ef          	jal	ra,89c <set_scan_seg_num>
     e8c:	fed44783          	lbu	a5,-19(s0)
     e90:	00a00593          	li	a1,10
     e94:	00078513          	mv	a0,a5
     e98:	63c000ef          	jal	ra,14d4 <__umodsi3>
     e9c:	00050793          	mv	a5,a0
     ea0:	0ff7f793          	andi	a5,a5,255
     ea4:	00078593          	mv	a1,a5
     ea8:	00300513          	li	a0,3
     eac:	9f1ff0ef          	jal	ra,89c <set_scan_seg_num>
     eb0:	fee44783          	lbu	a5,-18(s0)
     eb4:	00a00593          	li	a1,10
     eb8:	00078513          	mv	a0,a5
     ebc:	618000ef          	jal	ra,14d4 <__umodsi3>
     ec0:	00050793          	mv	a5,a0
     ec4:	0ff7f493          	andi	s1,a5,255
     ec8:	fee44783          	lbu	a5,-18(s0)
     ecc:	00a00593          	li	a1,10
     ed0:	00078513          	mv	a0,a5
     ed4:	5b8000ef          	jal	ra,148c <__udivsi3>
     ed8:	00050793          	mv	a5,a0
     edc:	0ff7f793          	andi	a5,a5,255
     ee0:	00479793          	slli	a5,a5,0x4
     ee4:	0ff7f793          	andi	a5,a5,255
     ee8:	00f487b3          	add	a5,s1,a5
     eec:	fef407a3          	sb	a5,-17(s0)
     ef0:	fef44783          	lbu	a5,-17(s0)
     ef4:	00078513          	mv	a0,a5
     ef8:	971ff0ef          	jal	ra,868 <set_static_seg>
     efc:	00000013          	nop
     f00:	01c12083          	lw	ra,28(sp)
     f04:	01812403          	lw	s0,24(sp)
     f08:	01412483          	lw	s1,20(sp)
     f0c:	02010113          	addi	sp,sp,32
     f10:	00008067          	ret

00000f14 <seg_show_alarm_time>:
     f14:	fe010113          	addi	sp,sp,-32
     f18:	00112e23          	sw	ra,28(sp)
     f1c:	00812c23          	sw	s0,24(sp)
     f20:	00912a23          	sw	s1,20(sp)
     f24:	02010413          	addi	s0,sp,32
     f28:	81c1a783          	lw	a5,-2020(gp) # 10001b4 <alarm_timestamp_tmp>
     f2c:	00078513          	mv	a0,a5
     f30:	464000ef          	jal	ra,1394 <timestamp_to_time>
     f34:	00050793          	mv	a5,a0
     f38:	fef40623          	sb	a5,-20(s0)
     f3c:	0087d713          	srli	a4,a5,0x8
     f40:	fff77713          	andi	a4,a4,-1
     f44:	fee406a3          	sb	a4,-19(s0)
     f48:	0107d793          	srli	a5,a5,0x10
     f4c:	fff7f793          	andi	a5,a5,-1
     f50:	fef40723          	sb	a5,-18(s0)
     f54:	fec44783          	lbu	a5,-20(s0)
     f58:	00a00593          	li	a1,10
     f5c:	00078513          	mv	a0,a5
     f60:	52c000ef          	jal	ra,148c <__udivsi3>
     f64:	00050793          	mv	a5,a0
     f68:	0ff7f793          	andi	a5,a5,255
     f6c:	00078593          	mv	a1,a5
     f70:	00000513          	li	a0,0
     f74:	929ff0ef          	jal	ra,89c <set_scan_seg_num>
     f78:	fec44783          	lbu	a5,-20(s0)
     f7c:	00a00593          	li	a1,10
     f80:	00078513          	mv	a0,a5
     f84:	550000ef          	jal	ra,14d4 <__umodsi3>
     f88:	00050793          	mv	a5,a0
     f8c:	0ff7f793          	andi	a5,a5,255
     f90:	00078593          	mv	a1,a5
     f94:	00100513          	li	a0,1
     f98:	905ff0ef          	jal	ra,89c <set_scan_seg_num>
     f9c:	fed44783          	lbu	a5,-19(s0)
     fa0:	00a00593          	li	a1,10
     fa4:	00078513          	mv	a0,a5
     fa8:	4e4000ef          	jal	ra,148c <__udivsi3>
     fac:	00050793          	mv	a5,a0
     fb0:	0ff7f793          	andi	a5,a5,255
     fb4:	00078593          	mv	a1,a5
     fb8:	00200513          	li	a0,2
     fbc:	8e1ff0ef          	jal	ra,89c <set_scan_seg_num>
     fc0:	fed44783          	lbu	a5,-19(s0)
     fc4:	00a00593          	li	a1,10
     fc8:	00078513          	mv	a0,a5
     fcc:	508000ef          	jal	ra,14d4 <__umodsi3>
     fd0:	00050793          	mv	a5,a0
     fd4:	0ff7f793          	andi	a5,a5,255
     fd8:	00078593          	mv	a1,a5
     fdc:	00300513          	li	a0,3
     fe0:	8bdff0ef          	jal	ra,89c <set_scan_seg_num>
     fe4:	fee44783          	lbu	a5,-18(s0)
     fe8:	00a00593          	li	a1,10
     fec:	00078513          	mv	a0,a5
     ff0:	4e4000ef          	jal	ra,14d4 <__umodsi3>
     ff4:	00050793          	mv	a5,a0
     ff8:	0ff7f493          	andi	s1,a5,255
     ffc:	fee44783          	lbu	a5,-18(s0)
    1000:	00a00593          	li	a1,10
    1004:	00078513          	mv	a0,a5
    1008:	484000ef          	jal	ra,148c <__udivsi3>
    100c:	00050793          	mv	a5,a0
    1010:	0ff7f793          	andi	a5,a5,255
    1014:	00479793          	slli	a5,a5,0x4
    1018:	0ff7f793          	andi	a5,a5,255
    101c:	00f487b3          	add	a5,s1,a5
    1020:	fef407a3          	sb	a5,-17(s0)
    1024:	fef44783          	lbu	a5,-17(s0)
    1028:	00078513          	mv	a0,a5
    102c:	83dff0ef          	jal	ra,868 <set_static_seg>
    1030:	00000013          	nop
    1034:	01c12083          	lw	ra,28(sp)
    1038:	01812403          	lw	s0,24(sp)
    103c:	01412483          	lw	s1,20(sp)
    1040:	02010113          	addi	sp,sp,32
    1044:	00008067          	ret

00001048 <button_action>:
    1048:	fd010113          	addi	sp,sp,-48
    104c:	02112623          	sw	ra,44(sp)
    1050:	02812423          	sw	s0,40(sp)
    1054:	03010413          	addi	s0,sp,48
    1058:	fca42e23          	sw	a0,-36(s0)
    105c:	af1ff0ef          	jal	ra,b4c <detect_falling>
    1060:	00050793          	mv	a5,a0
    1064:	fef407a3          	sb	a5,-17(s0)
    1068:	fef44783          	lbu	a5,-17(s0)
    106c:	30078a63          	beqz	a5,1380 <button_action+0x338>
    1070:	fdc42783          	lw	a5,-36(s0)
    1074:	08079a63          	bnez	a5,1108 <button_action+0xc0>
    1078:	fef40783          	lb	a5,-17(s0)
    107c:	0207d063          	bgez	a5,109c <button_action+0x54>
    1080:	8201a703          	lw	a4,-2016(gp) # 10001b8 <cur_timestamp>
    1084:	80e1a823          	sw	a4,-2032(gp) # 10001a8 <tar_timestamp>
    1088:	00100713          	li	a4,1
    108c:	80e1ac23          	sw	a4,-2024(gp) # 10001b0 <g_main_status>
    1090:	010007b7          	lui	a5,0x1000
    1094:	08478513          	addi	a0,a5,132 # 1000084 <_data+0x84>
    1098:	f4cff0ef          	jal	ra,7e4 <xprintf>
    109c:	fef44783          	lbu	a5,-17(s0)
    10a0:	0407f793          	andi	a5,a5,64
    10a4:	02078063          	beqz	a5,10c4 <button_action+0x7c>
    10a8:	8141a703          	lw	a4,-2028(gp) # 10001ac <alarm_timestamp>
    10ac:	80e1ae23          	sw	a4,-2020(gp) # 10001b4 <alarm_timestamp_tmp>
    10b0:	00200713          	li	a4,2
    10b4:	80e1ac23          	sw	a4,-2024(gp) # 10001b0 <g_main_status>
    10b8:	010007b7          	lui	a5,0x1000
    10bc:	0ac78513          	addi	a0,a5,172 # 10000ac <_data+0xac>
    10c0:	f24ff0ef          	jal	ra,7e4 <xprintf>
    10c4:	fef44783          	lbu	a5,-17(s0)
    10c8:	0107f793          	andi	a5,a5,16
    10cc:	00078c63          	beqz	a5,10e4 <button_action+0x9c>
    10d0:	00100713          	li	a4,1
    10d4:	82e18223          	sb	a4,-2012(gp) # 10001bc <alarm_enable>
    10d8:	010007b7          	lui	a5,0x1000
    10dc:	0d478513          	addi	a0,a5,212 # 10000d4 <_data+0xd4>
    10e0:	f04ff0ef          	jal	ra,7e4 <xprintf>
    10e4:	fef44783          	lbu	a5,-17(s0)
    10e8:	0087f793          	andi	a5,a5,8
    10ec:	28078c63          	beqz	a5,1384 <button_action+0x33c>
    10f0:	82018223          	sb	zero,-2012(gp) # 10001bc <alarm_enable>
    10f4:	820182a3          	sb	zero,-2011(gp) # 10001bd <alarm_triggle>
    10f8:	010007b7          	lui	a5,0x1000
    10fc:	0fc78513          	addi	a0,a5,252 # 10000fc <_data+0xfc>
    1100:	ee4ff0ef          	jal	ra,7e4 <xprintf>
    1104:	2800006f          	j	1384 <button_action+0x33c>
    1108:	fdc42703          	lw	a4,-36(s0)
    110c:	00100793          	li	a5,1
    1110:	14f71863          	bne	a4,a5,1260 <button_action+0x218>
    1114:	fef40783          	lb	a5,-17(s0)
    1118:	0007dc63          	bgez	a5,1130 <button_action+0xe8>
    111c:	8101a703          	lw	a4,-2032(gp) # 10001a8 <tar_timestamp>
    1120:	000017b7          	lui	a5,0x1
    1124:	e1078793          	addi	a5,a5,-496 # e10 <seg_show_tar_time+0x30>
    1128:	00f70733          	add	a4,a4,a5
    112c:	80e1a823          	sw	a4,-2032(gp) # 10001a8 <tar_timestamp>
    1130:	fef44783          	lbu	a5,-17(s0)
    1134:	0407f793          	andi	a5,a5,64
    1138:	00078863          	beqz	a5,1148 <button_action+0x100>
    113c:	8101a783          	lw	a5,-2032(gp) # 10001a8 <tar_timestamp>
    1140:	03c78713          	addi	a4,a5,60
    1144:	80e1a823          	sw	a4,-2032(gp) # 10001a8 <tar_timestamp>
    1148:	fef44783          	lbu	a5,-17(s0)
    114c:	0207f793          	andi	a5,a5,32
    1150:	00078863          	beqz	a5,1160 <button_action+0x118>
    1154:	8101a783          	lw	a5,-2032(gp) # 10001a8 <tar_timestamp>
    1158:	00178713          	addi	a4,a5,1
    115c:	80e1a823          	sw	a4,-2032(gp) # 10001a8 <tar_timestamp>
    1160:	fef44783          	lbu	a5,-17(s0)
    1164:	0107f793          	andi	a5,a5,16
    1168:	00078c63          	beqz	a5,1180 <button_action+0x138>
    116c:	8101a703          	lw	a4,-2032(gp) # 10001a8 <tar_timestamp>
    1170:	fffff7b7          	lui	a5,0xfffff
    1174:	1f078793          	addi	a5,a5,496 # fffff1f0 <__freertos_irq_stack_top+0xfeffb1f0>
    1178:	00f70733          	add	a4,a4,a5
    117c:	80e1a823          	sw	a4,-2032(gp) # 10001a8 <tar_timestamp>
    1180:	fef44783          	lbu	a5,-17(s0)
    1184:	0087f793          	andi	a5,a5,8
    1188:	00078863          	beqz	a5,1198 <button_action+0x150>
    118c:	8101a783          	lw	a5,-2032(gp) # 10001a8 <tar_timestamp>
    1190:	fc478713          	addi	a4,a5,-60
    1194:	80e1a823          	sw	a4,-2032(gp) # 10001a8 <tar_timestamp>
    1198:	fef44783          	lbu	a5,-17(s0)
    119c:	0047f793          	andi	a5,a5,4
    11a0:	00078863          	beqz	a5,11b0 <button_action+0x168>
    11a4:	8101a783          	lw	a5,-2032(gp) # 10001a8 <tar_timestamp>
    11a8:	fff78713          	addi	a4,a5,-1
    11ac:	80e1a823          	sw	a4,-2032(gp) # 10001a8 <tar_timestamp>
    11b0:	8101a703          	lw	a4,-2032(gp) # 10001a8 <tar_timestamp>
    11b4:	000157b7          	lui	a5,0x15
    11b8:	18078793          	addi	a5,a5,384 # 15180 <__stack_size+0x13180>
    11bc:	00f70733          	add	a4,a4,a5
    11c0:	80e1a823          	sw	a4,-2032(gp) # 10001a8 <tar_timestamp>
    11c4:	8101a703          	lw	a4,-2032(gp) # 10001a8 <tar_timestamp>
    11c8:	000157b7          	lui	a5,0x15
    11cc:	18078593          	addi	a1,a5,384 # 15180 <__stack_size+0x13180>
    11d0:	00070513          	mv	a0,a4
    11d4:	300000ef          	jal	ra,14d4 <__umodsi3>
    11d8:	00050793          	mv	a5,a0
    11dc:	00078713          	mv	a4,a5
    11e0:	80e1a823          	sw	a4,-2032(gp) # 10001a8 <tar_timestamp>
    11e4:	fef44783          	lbu	a5,-17(s0)
    11e8:	0027f793          	andi	a5,a5,2
    11ec:	00078a63          	beqz	a5,1200 <button_action+0x1b8>
    11f0:	8001ac23          	sw	zero,-2024(gp) # 10001b0 <g_main_status>
    11f4:	010007b7          	lui	a5,0x1000
    11f8:	12478513          	addi	a0,a5,292 # 1000124 <_data+0x124>
    11fc:	de8ff0ef          	jal	ra,7e4 <xprintf>
    1200:	fef44783          	lbu	a5,-17(s0)
    1204:	0017f793          	andi	a5,a5,1
    1208:	02078063          	beqz	a5,1228 <button_action+0x1e0>
    120c:	8101a783          	lw	a5,-2032(gp) # 10001a8 <tar_timestamp>
    1210:	00078513          	mv	a0,a5
    1214:	831ff0ef          	jal	ra,a44 <set_sec_clock_init_time>
    1218:	8001ac23          	sw	zero,-2024(gp) # 10001b0 <g_main_status>
    121c:	010007b7          	lui	a5,0x1000
    1220:	14878513          	addi	a0,a5,328 # 1000148 <_data+0x148>
    1224:	dc0ff0ef          	jal	ra,7e4 <xprintf>
    1228:	8101a703          	lw	a4,-2032(gp) # 10001a8 <tar_timestamp>
    122c:	000157b7          	lui	a5,0x15
    1230:	18078793          	addi	a5,a5,384 # 15180 <__stack_size+0x13180>
    1234:	00f70733          	add	a4,a4,a5
    1238:	80e1a823          	sw	a4,-2032(gp) # 10001a8 <tar_timestamp>
    123c:	8101a703          	lw	a4,-2032(gp) # 10001a8 <tar_timestamp>
    1240:	000157b7          	lui	a5,0x15
    1244:	18078593          	addi	a1,a5,384 # 15180 <__stack_size+0x13180>
    1248:	00070513          	mv	a0,a4
    124c:	288000ef          	jal	ra,14d4 <__umodsi3>
    1250:	00050793          	mv	a5,a0
    1254:	00078713          	mv	a4,a5
    1258:	80e1a823          	sw	a4,-2032(gp) # 10001a8 <tar_timestamp>
    125c:	1280006f          	j	1384 <button_action+0x33c>
    1260:	fdc42703          	lw	a4,-36(s0)
    1264:	00200793          	li	a5,2
    1268:	10f71e63          	bne	a4,a5,1384 <button_action+0x33c>
    126c:	fef40783          	lb	a5,-17(s0)
    1270:	0007dc63          	bgez	a5,1288 <button_action+0x240>
    1274:	81c1a703          	lw	a4,-2020(gp) # 10001b4 <alarm_timestamp_tmp>
    1278:	000017b7          	lui	a5,0x1
    127c:	e1078793          	addi	a5,a5,-496 # e10 <seg_show_tar_time+0x30>
    1280:	00f70733          	add	a4,a4,a5
    1284:	80e1ae23          	sw	a4,-2020(gp) # 10001b4 <alarm_timestamp_tmp>
    1288:	fef44783          	lbu	a5,-17(s0)
    128c:	0407f793          	andi	a5,a5,64
    1290:	00078863          	beqz	a5,12a0 <button_action+0x258>
    1294:	81c1a783          	lw	a5,-2020(gp) # 10001b4 <alarm_timestamp_tmp>
    1298:	03c78713          	addi	a4,a5,60
    129c:	80e1ae23          	sw	a4,-2020(gp) # 10001b4 <alarm_timestamp_tmp>
    12a0:	fef44783          	lbu	a5,-17(s0)
    12a4:	0207f793          	andi	a5,a5,32
    12a8:	00078863          	beqz	a5,12b8 <button_action+0x270>
    12ac:	81c1a783          	lw	a5,-2020(gp) # 10001b4 <alarm_timestamp_tmp>
    12b0:	00178713          	addi	a4,a5,1
    12b4:	80e1ae23          	sw	a4,-2020(gp) # 10001b4 <alarm_timestamp_tmp>
    12b8:	fef44783          	lbu	a5,-17(s0)
    12bc:	0107f793          	andi	a5,a5,16
    12c0:	00078c63          	beqz	a5,12d8 <button_action+0x290>
    12c4:	81c1a703          	lw	a4,-2020(gp) # 10001b4 <alarm_timestamp_tmp>
    12c8:	fffff7b7          	lui	a5,0xfffff
    12cc:	1f078793          	addi	a5,a5,496 # fffff1f0 <__freertos_irq_stack_top+0xfeffb1f0>
    12d0:	00f70733          	add	a4,a4,a5
    12d4:	80e1ae23          	sw	a4,-2020(gp) # 10001b4 <alarm_timestamp_tmp>
    12d8:	fef44783          	lbu	a5,-17(s0)
    12dc:	0087f793          	andi	a5,a5,8
    12e0:	00078863          	beqz	a5,12f0 <button_action+0x2a8>
    12e4:	81c1a783          	lw	a5,-2020(gp) # 10001b4 <alarm_timestamp_tmp>
    12e8:	fc478713          	addi	a4,a5,-60
    12ec:	80e1ae23          	sw	a4,-2020(gp) # 10001b4 <alarm_timestamp_tmp>
    12f0:	fef44783          	lbu	a5,-17(s0)
    12f4:	0047f793          	andi	a5,a5,4
    12f8:	00078863          	beqz	a5,1308 <button_action+0x2c0>
    12fc:	81c1a783          	lw	a5,-2020(gp) # 10001b4 <alarm_timestamp_tmp>
    1300:	fff78713          	addi	a4,a5,-1
    1304:	80e1ae23          	sw	a4,-2020(gp) # 10001b4 <alarm_timestamp_tmp>
    1308:	81c1a703          	lw	a4,-2020(gp) # 10001b4 <alarm_timestamp_tmp>
    130c:	000157b7          	lui	a5,0x15
    1310:	18078793          	addi	a5,a5,384 # 15180 <__stack_size+0x13180>
    1314:	00f70733          	add	a4,a4,a5
    1318:	80e1ae23          	sw	a4,-2020(gp) # 10001b4 <alarm_timestamp_tmp>
    131c:	81c1a703          	lw	a4,-2020(gp) # 10001b4 <alarm_timestamp_tmp>
    1320:	000157b7          	lui	a5,0x15
    1324:	18078593          	addi	a1,a5,384 # 15180 <__stack_size+0x13180>
    1328:	00070513          	mv	a0,a4
    132c:	1a8000ef          	jal	ra,14d4 <__umodsi3>
    1330:	00050793          	mv	a5,a0
    1334:	00078713          	mv	a4,a5
    1338:	80e1ae23          	sw	a4,-2020(gp) # 10001b4 <alarm_timestamp_tmp>
    133c:	fef44783          	lbu	a5,-17(s0)
    1340:	0027f793          	andi	a5,a5,2
    1344:	00078a63          	beqz	a5,1358 <button_action+0x310>
    1348:	8001ac23          	sw	zero,-2024(gp) # 10001b0 <g_main_status>
    134c:	010007b7          	lui	a5,0x1000
    1350:	12478513          	addi	a0,a5,292 # 1000124 <_data+0x124>
    1354:	c90ff0ef          	jal	ra,7e4 <xprintf>
    1358:	fef44783          	lbu	a5,-17(s0)
    135c:	0017f793          	andi	a5,a5,1
    1360:	02078263          	beqz	a5,1384 <button_action+0x33c>
    1364:	81c1a703          	lw	a4,-2020(gp) # 10001b4 <alarm_timestamp_tmp>
    1368:	80e1aa23          	sw	a4,-2028(gp) # 10001ac <alarm_timestamp>
    136c:	8001ac23          	sw	zero,-2024(gp) # 10001b0 <g_main_status>
    1370:	010007b7          	lui	a5,0x1000
    1374:	17078513          	addi	a0,a5,368 # 1000170 <_data+0x170>
    1378:	c6cff0ef          	jal	ra,7e4 <xprintf>
    137c:	0080006f          	j	1384 <button_action+0x33c>
    1380:	00000013          	nop
    1384:	02c12083          	lw	ra,44(sp)
    1388:	02812403          	lw	s0,40(sp)
    138c:	03010113          	addi	sp,sp,48
    1390:	00008067          	ret

00001394 <timestamp_to_time>:
    1394:	fd010113          	addi	sp,sp,-48
    1398:	02112623          	sw	ra,44(sp)
    139c:	02812423          	sw	s0,40(sp)
    13a0:	03010413          	addi	s0,sp,48
    13a4:	fca42e23          	sw	a0,-36(s0)
    13a8:	fdc42703          	lw	a4,-36(s0)
    13ac:	000017b7          	lui	a5,0x1
    13b0:	e1078593          	addi	a1,a5,-496 # e10 <seg_show_tar_time+0x30>
    13b4:	00070513          	mv	a0,a4
    13b8:	0d4000ef          	jal	ra,148c <__udivsi3>
    13bc:	00050793          	mv	a5,a0
    13c0:	0ff7f793          	andi	a5,a5,255
    13c4:	fef40423          	sb	a5,-24(s0)
    13c8:	fdc42703          	lw	a4,-36(s0)
    13cc:	000017b7          	lui	a5,0x1
    13d0:	e1078593          	addi	a1,a5,-496 # e10 <seg_show_tar_time+0x30>
    13d4:	00070513          	mv	a0,a4
    13d8:	0fc000ef          	jal	ra,14d4 <__umodsi3>
    13dc:	00050793          	mv	a5,a0
    13e0:	03c00593          	li	a1,60
    13e4:	00078513          	mv	a0,a5
    13e8:	0a4000ef          	jal	ra,148c <__udivsi3>
    13ec:	00050793          	mv	a5,a0
    13f0:	0ff7f793          	andi	a5,a5,255
    13f4:	fef404a3          	sb	a5,-23(s0)
    13f8:	fdc42783          	lw	a5,-36(s0)
    13fc:	03c00593          	li	a1,60
    1400:	00078513          	mv	a0,a5
    1404:	0d0000ef          	jal	ra,14d4 <__umodsi3>
    1408:	00050793          	mv	a5,a0
    140c:	0ff7f793          	andi	a5,a5,255
    1410:	fef40523          	sb	a5,-22(s0)
    1414:	fe845783          	lhu	a5,-24(s0)
    1418:	fef41623          	sh	a5,-20(s0)
    141c:	fea44783          	lbu	a5,-22(s0)
    1420:	fef40723          	sb	a5,-18(s0)
    1424:	00000793          	li	a5,0
    1428:	fec44703          	lbu	a4,-20(s0)
    142c:	0ff77713          	andi	a4,a4,255
    1430:	f007f793          	andi	a5,a5,-256
    1434:	00e7e7b3          	or	a5,a5,a4
    1438:	fed44703          	lbu	a4,-19(s0)
    143c:	0ff77713          	andi	a4,a4,255
    1440:	00871713          	slli	a4,a4,0x8
    1444:	ffff06b7          	lui	a3,0xffff0
    1448:	0ff68693          	addi	a3,a3,255 # ffff00ff <__freertos_irq_stack_top+0xfefec0ff>
    144c:	00d7f7b3          	and	a5,a5,a3
    1450:	00e7e7b3          	or	a5,a5,a4
    1454:	fee44703          	lbu	a4,-18(s0)
    1458:	0ff77713          	andi	a4,a4,255
    145c:	01071713          	slli	a4,a4,0x10
    1460:	ff0106b7          	lui	a3,0xff010
    1464:	fff68693          	addi	a3,a3,-1 # ff00ffff <__freertos_irq_stack_top+0xfe00bfff>
    1468:	00d7f7b3          	and	a5,a5,a3
    146c:	00e7e7b3          	or	a5,a5,a4
    1470:	00078513          	mv	a0,a5
    1474:	02c12083          	lw	ra,44(sp)
    1478:	02812403          	lw	s0,40(sp)
    147c:	03010113          	addi	sp,sp,48
    1480:	00008067          	ret

00001484 <__divsi3>:
    1484:	06054063          	bltz	a0,14e4 <__umodsi3+0x10>
    1488:	0605c663          	bltz	a1,14f4 <__umodsi3+0x20>

0000148c <__udivsi3>:
    148c:	00058613          	mv	a2,a1
    1490:	00050593          	mv	a1,a0
    1494:	fff00513          	li	a0,-1
    1498:	02060c63          	beqz	a2,14d0 <__udivsi3+0x44>
    149c:	00100693          	li	a3,1
    14a0:	00b67a63          	bgeu	a2,a1,14b4 <__udivsi3+0x28>
    14a4:	00c05863          	blez	a2,14b4 <__udivsi3+0x28>
    14a8:	00161613          	slli	a2,a2,0x1
    14ac:	00169693          	slli	a3,a3,0x1
    14b0:	feb66ae3          	bltu	a2,a1,14a4 <__udivsi3+0x18>
    14b4:	00000513          	li	a0,0
    14b8:	00c5e663          	bltu	a1,a2,14c4 <__udivsi3+0x38>
    14bc:	40c585b3          	sub	a1,a1,a2
    14c0:	00d56533          	or	a0,a0,a3
    14c4:	0016d693          	srli	a3,a3,0x1
    14c8:	00165613          	srli	a2,a2,0x1
    14cc:	fe0696e3          	bnez	a3,14b8 <__udivsi3+0x2c>
    14d0:	00008067          	ret

000014d4 <__umodsi3>:
    14d4:	00008293          	mv	t0,ra
    14d8:	fb5ff0ef          	jal	ra,148c <__udivsi3>
    14dc:	00058513          	mv	a0,a1
    14e0:	00028067          	jr	t0
    14e4:	40a00533          	neg	a0,a0
    14e8:	0005d863          	bgez	a1,14f8 <__umodsi3+0x24>
    14ec:	40b005b3          	neg	a1,a1
    14f0:	f9dff06f          	j	148c <__udivsi3>
    14f4:	40b005b3          	neg	a1,a1
    14f8:	00008293          	mv	t0,ra
    14fc:	f91ff0ef          	jal	ra,148c <__udivsi3>
    1500:	40a00533          	neg	a0,a0
    1504:	00028067          	jr	t0

00001508 <__modsi3>:
    1508:	00008293          	mv	t0,ra
    150c:	0005ca63          	bltz	a1,1520 <__modsi3+0x18>
    1510:	00054c63          	bltz	a0,1528 <__modsi3+0x20>
    1514:	f79ff0ef          	jal	ra,148c <__udivsi3>
    1518:	00058513          	mv	a0,a1
    151c:	00028067          	jr	t0
    1520:	40b005b3          	neg	a1,a1
    1524:	fe0558e3          	bgez	a0,1514 <__modsi3+0xc>
    1528:	40a00533          	neg	a0,a0
    152c:	f61ff0ef          	jal	ra,148c <__udivsi3>
    1530:	40b00533          	neg	a0,a1
    1534:	00028067          	jr	t0

Disassembly of section .data:

01000000 <pre_button_level-0x198>:
 1000000:	05a0                	addi	s0,sp,712
 1000002:	0000                	unimp
 1000004:	0580                	addi	s0,sp,704
 1000006:	0000                	unimp
 1000008:	05b8                	addi	a4,sp,712
 100000a:	0000                	unimp
 100000c:	05d0                	addi	a2,sp,708
 100000e:	0000                	unimp
 1000010:	05d0                	addi	a2,sp,708
 1000012:	0000                	unimp
 1000014:	05d0                	addi	a2,sp,708
 1000016:	0000                	unimp
 1000018:	05d0                	addi	a2,sp,708
 100001a:	0000                	unimp
 100001c:	05d0                	addi	a2,sp,708
 100001e:	0000                	unimp
 1000020:	05d0                	addi	a2,sp,708
 1000022:	0000                	unimp
 1000024:	05d0                	addi	a2,sp,708
 1000026:	0000                	unimp
 1000028:	05d0                	addi	a2,sp,708
 100002a:	0000                	unimp
 100002c:	05d0                	addi	a2,sp,708
 100002e:	0000                	unimp
 1000030:	05d0                	addi	a2,sp,708
 1000032:	0000                	unimp
 1000034:	05ac                	addi	a1,sp,712
 1000036:	0000                	unimp
 1000038:	05d0                	addi	a2,sp,708
 100003a:	0000                	unimp
 100003c:	05d0                	addi	a2,sp,708
 100003e:	0000                	unimp
 1000040:	05d0                	addi	a2,sp,708
 1000042:	0000                	unimp
 1000044:	04ec                	addi	a1,sp,588
 1000046:	0000                	unimp
 1000048:	05d0                	addi	a2,sp,708
 100004a:	0000                	unimp
 100004c:	05b8                	addi	a4,sp,712
 100004e:	0000                	unimp
 1000050:	05d0                	addi	a2,sp,708
 1000052:	0000                	unimp
 1000054:	05d0                	addi	a2,sp,708
 1000056:	0000                	unimp
 1000058:	05c4                	addi	s1,sp,708
 100005a:	0000                	unimp
 100005c:	0a0a                	slli	s4,s4,0x2
 100005e:	23232323          	sw	s2,550(t1)
 1000062:	23232323          	sw	s2,550(t1)
 1000066:	6964                	flw	fs1,84(a0)
 1000068:	676e                	flw	fa4,216(sp)
 100006a:	647e                	flw	fs0,220(sp)
 100006c:	6e69                	lui	t3,0x1a
 100006e:	69647e67          	0x69647e67
 1000072:	676e                	flw	fa4,216(sp)
 1000074:	237e                	fld	ft6,472(sp)
 1000076:	23232323          	sw	s2,550(t1)
 100007a:	23232323          	sw	s2,550(t1)
 100007e:	0a0a                	slli	s4,s4,0x2
 1000080:	0000                	unimp
 1000082:	0000                	unimp
 1000084:	2a2a                	fld	fs4,136(sp)
 1000086:	2a2a                	fld	fs4,136(sp)
 1000088:	2a2a                	fld	fs4,136(sp)
 100008a:	2a2a                	fld	fs4,136(sp)
 100008c:	2a2a                	fld	fs4,136(sp)
 100008e:	2a2a                	fld	fs4,136(sp)
 1000090:	732a                	flw	ft6,168(sp)
 1000092:	7465                	lui	s0,0xffff9
 1000094:	6974                	flw	fa3,84(a0)
 1000096:	676e                	flw	fa4,216(sp)
 1000098:	7420                	flw	fs0,104(s0)
 100009a:	6d69                	lui	s10,0x1a
 100009c:	2a65                	jal	1000254 <_end+0x94>
 100009e:	2a2a                	fld	fs4,136(sp)
 10000a0:	2a2a                	fld	fs4,136(sp)
 10000a2:	2a2a                	fld	fs4,136(sp)
 10000a4:	2a2a                	fld	fs4,136(sp)
 10000a6:	2a2a                	fld	fs4,136(sp)
 10000a8:	0a2a                	slli	s4,s4,0xa
 10000aa:	0000                	unimp
 10000ac:	2a2a                	fld	fs4,136(sp)
 10000ae:	2a2a                	fld	fs4,136(sp)
 10000b0:	2a2a                	fld	fs4,136(sp)
 10000b2:	2a2a                	fld	fs4,136(sp)
 10000b4:	2a2a                	fld	fs4,136(sp)
 10000b6:	2a2a                	fld	fs4,136(sp)
 10000b8:	732a                	flw	ft6,168(sp)
 10000ba:	7465                	lui	s0,0xffff9
 10000bc:	6974                	flw	fa3,84(a0)
 10000be:	676e                	flw	fa4,216(sp)
 10000c0:	6120                	flw	fs0,64(a0)
 10000c2:	616c                	flw	fa1,68(a0)
 10000c4:	7472                	flw	fs0,60(sp)
 10000c6:	2a2a                	fld	fs4,136(sp)
 10000c8:	2a2a                	fld	fs4,136(sp)
 10000ca:	2a2a                	fld	fs4,136(sp)
 10000cc:	2a2a                	fld	fs4,136(sp)
 10000ce:	2a2a                	fld	fs4,136(sp)
 10000d0:	2a2a                	fld	fs4,136(sp)
 10000d2:	000a                	c.slli	zero,0x2
 10000d4:	2a2a                	fld	fs4,136(sp)
 10000d6:	2a2a                	fld	fs4,136(sp)
 10000d8:	2a2a                	fld	fs4,136(sp)
 10000da:	2a2a                	fld	fs4,136(sp)
 10000dc:	2a2a                	fld	fs4,136(sp)
 10000de:	2a2a                	fld	fs4,136(sp)
 10000e0:	612a                	flw	ft2,136(sp)
 10000e2:	616c                	flw	fa1,68(a0)
 10000e4:	7472                	flw	fs0,60(sp)
 10000e6:	6520                	flw	fs0,72(a0)
 10000e8:	616e                	flw	ft2,216(sp)
 10000ea:	6c62                	flw	fs8,24(sp)
 10000ec:	2a65                	jal	10002a4 <_end+0xe4>
 10000ee:	2a2a                	fld	fs4,136(sp)
 10000f0:	2a2a                	fld	fs4,136(sp)
 10000f2:	2a2a                	fld	fs4,136(sp)
 10000f4:	2a2a                	fld	fs4,136(sp)
 10000f6:	2a2a                	fld	fs4,136(sp)
 10000f8:	0a2a                	slli	s4,s4,0xa
 10000fa:	0000                	unimp
 10000fc:	2a2a                	fld	fs4,136(sp)
 10000fe:	2a2a                	fld	fs4,136(sp)
 1000100:	2a2a                	fld	fs4,136(sp)
 1000102:	2a2a                	fld	fs4,136(sp)
 1000104:	2a2a                	fld	fs4,136(sp)
 1000106:	2a2a                	fld	fs4,136(sp)
 1000108:	612a                	flw	ft2,136(sp)
 100010a:	616c                	flw	fa1,68(a0)
 100010c:	7472                	flw	fs0,60(sp)
 100010e:	6420                	flw	fs0,72(s0)
 1000110:	7369                	lui	t1,0xffffa
 1000112:	6261                	lui	tp,0x18
 1000114:	656c                	flw	fa1,76(a0)
 1000116:	2a2a                	fld	fs4,136(sp)
 1000118:	2a2a                	fld	fs4,136(sp)
 100011a:	2a2a                	fld	fs4,136(sp)
 100011c:	2a2a                	fld	fs4,136(sp)
 100011e:	2a2a                	fld	fs4,136(sp)
 1000120:	2a2a                	fld	fs4,136(sp)
 1000122:	000a                	c.slli	zero,0x2
 1000124:	2a2a                	fld	fs4,136(sp)
 1000126:	2a2a                	fld	fs4,136(sp)
 1000128:	2a2a                	fld	fs4,136(sp)
 100012a:	2a2a                	fld	fs4,136(sp)
 100012c:	2a2a                	fld	fs4,136(sp)
 100012e:	2a2a                	fld	fs4,136(sp)
 1000130:	632a                	flw	ft6,136(sp)
 1000132:	6e61                	lui	t3,0x18
 1000134:	2a6c6563          	bltu	s8,t1,10003de <_end+0x21e>
 1000138:	2a2a                	fld	fs4,136(sp)
 100013a:	2a2a                	fld	fs4,136(sp)
 100013c:	2a2a                	fld	fs4,136(sp)
 100013e:	2a2a                	fld	fs4,136(sp)
 1000140:	2a2a                	fld	fs4,136(sp)
 1000142:	0a2a                	slli	s4,s4,0xa
 1000144:	0000                	unimp
 1000146:	0000                	unimp
 1000148:	2a2a                	fld	fs4,136(sp)
 100014a:	2a2a                	fld	fs4,136(sp)
 100014c:	2a2a                	fld	fs4,136(sp)
 100014e:	2a2a                	fld	fs4,136(sp)
 1000150:	2a2a                	fld	fs4,136(sp)
 1000152:	732a                	flw	ft6,168(sp)
 1000154:	7465                	lui	s0,0xffff9
 1000156:	6e20                	flw	fs0,88(a2)
 1000158:	7765                	lui	a4,0xffff9
 100015a:	7420                	flw	fs0,104(s0)
 100015c:	6d69                	lui	s10,0x1a
 100015e:	2a65                	jal	1000316 <_end+0x156>
 1000160:	2a2a                	fld	fs4,136(sp)
 1000162:	2a2a                	fld	fs4,136(sp)
 1000164:	2a2a                	fld	fs4,136(sp)
 1000166:	2a2a                	fld	fs4,136(sp)
 1000168:	2a2a                	fld	fs4,136(sp)
 100016a:	0a2a                	slli	s4,s4,0xa
 100016c:	0000                	unimp
 100016e:	0000                	unimp
 1000170:	2a2a                	fld	fs4,136(sp)
 1000172:	2a2a                	fld	fs4,136(sp)
 1000174:	2a2a                	fld	fs4,136(sp)
 1000176:	2a2a                	fld	fs4,136(sp)
 1000178:	2a2a                	fld	fs4,136(sp)
 100017a:	732a                	flw	ft6,168(sp)
 100017c:	7465                	lui	s0,0xffff9
 100017e:	6e20                	flw	fs0,88(a2)
 1000180:	7765                	lui	a4,0xffff9
 1000182:	6120                	flw	fs0,64(a0)
 1000184:	616c                	flw	fa1,68(a0)
 1000186:	7472                	flw	fs0,60(sp)
 1000188:	2a2a                	fld	fs4,136(sp)
 100018a:	2a2a                	fld	fs4,136(sp)
 100018c:	2a2a                	fld	fs4,136(sp)
 100018e:	2a2a                	fld	fs4,136(sp)
 1000190:	2a2a                	fld	fs4,136(sp)
 1000192:	2a2a                	fld	fs4,136(sp)
 1000194:	000a                	c.slli	zero,0x2
	...

01000198 <pre_button_level>:
 1000198:	                	0xffff

01000199 <cur_button_level>:
 1000199:	00ff                	0xff
 100019b:	0000                	unimp
 100019d:	0000                	unimp
	...

Disassembly of section .bss:

010001a0 <__bss_start>:
 10001a0:	0000                	unimp
	...

010001a4 <xfunc_out>:
 10001a4:	0000                	unimp
	...

010001a8 <tar_timestamp>:
 10001a8:	0000                	unimp
	...

010001ac <alarm_timestamp>:
 10001ac:	0000                	unimp
	...

010001b0 <g_main_status>:
 10001b0:	0000                	unimp
	...

010001b4 <alarm_timestamp_tmp>:
 10001b4:	0000                	unimp
	...

010001b8 <cur_timestamp>:
 10001b8:	0000                	unimp
	...

010001bc <alarm_enable>:
	...

010001bd <alarm_triggle>:
 10001bd:	0000                	unimp
	...

Disassembly of section .stack:

01002000 <__freertos_irq_stack_top-0x2000>:
	...

Disassembly of section .debug_line:

00000000 <.debug_line>:
       0:	00b0                	addi	a2,sp,72
       2:	0000                	unimp
       4:	00220003          	lb	zero,2(tp) # 18002 <__stack_size+0x16002>
       8:	0000                	unimp
       a:	0101                	addi	sp,sp,0
       c:	000d0efb          	0xd0efb
      10:	0101                	addi	sp,sp,0
      12:	0101                	addi	sp,sp,0
      14:	0000                	unimp
      16:	0100                	addi	s0,sp,128
      18:	0000                	unimp
      1a:	7301                	lui	t1,0xfffe0
      1c:	6372                	flw	ft6,28(sp)
      1e:	0000                	unimp
      20:	72617473          	csrrci	s0,0x726,2
      24:	2e74                	fld	fa3,216(a2)
      26:	00010053          	fadd.s	ft0,ft2,ft0,rne
      2a:	0000                	unimp
      2c:	0500                	addi	s0,sp,640
      2e:	0002                	c.slli64	zero
      30:	0000                	unimp
      32:	0300                	addi	s0,sp,384
      34:	0109                	addi	sp,sp,2
      36:	08090203          	lb	tp,128(s2)
      3a:	0100                	addi	s0,sp,128
      3c:	08090303          	lb	t1,128(s2)
      40:	0100                	addi	s0,sp,128
      42:	08090103          	lb	sp,128(s2)
      46:	0100                	addi	s0,sp,128
      48:	08090103          	lb	sp,128(s2)
      4c:	0100                	addi	s0,sp,128
      4e:	04090103          	lb	sp,64(s2)
      52:	0100                	addi	s0,sp,128
      54:	04090203          	lb	tp,64(s2)
      58:	0100                	addi	s0,sp,128
      5a:	04090103          	lb	sp,64(s2)
      5e:	0100                	addi	s0,sp,128
      60:	04090103          	lb	sp,64(s2)
      64:	0100                	addi	s0,sp,128
      66:	04090103          	lb	sp,64(s2)
      6a:	0100                	addi	s0,sp,128
      6c:	04090103          	lb	sp,64(s2)
      70:	0100                	addi	s0,sp,128
      72:	04090403          	lb	s0,64(s2)
      76:	0100                	addi	s0,sp,128
      78:	04090103          	lb	sp,64(s2)
      7c:	0100                	addi	s0,sp,128
      7e:	04090103          	lb	sp,64(s2)
      82:	0100                	addi	s0,sp,128
      84:	04090203          	lb	tp,64(s2)
      88:	0100                	addi	s0,sp,128
      8a:	04090103          	lb	sp,64(s2)
      8e:	0100                	addi	s0,sp,128
      90:	04090103          	lb	sp,64(s2)
      94:	0100                	addi	s0,sp,128
      96:	04090403          	lb	s0,64(s2)
      9a:	0100                	addi	s0,sp,128
      9c:	08090103          	lb	sp,128(s2)
      a0:	0100                	addi	s0,sp,128
      a2:	04090203          	lb	tp,64(s2)
      a6:	0100                	addi	s0,sp,128
      a8:	04090403          	lb	s0,64(s2)
      ac:	0100                	addi	s0,sp,128
      ae:	0409                	addi	s0,s0,2
      b0:	0000                	unimp
      b2:	0101                	addi	sp,sp,0
      b4:	000001f3          	0x1f3
      b8:	00270003          	lb	zero,2(a4) # ffff9002 <__freertos_irq_stack_top+0xfeff5002>
      bc:	0000                	unimp
      be:	0101                	addi	sp,sp,0
      c0:	000d0efb          	0xd0efb
      c4:	0101                	addi	sp,sp,0
      c6:	0101                	addi	sp,sp,0
      c8:	0000                	unimp
      ca:	0100                	addi	s0,sp,128
      cc:	0000                	unimp
      ce:	7301                	lui	t1,0xfffe0
      d0:	6372                	flw	ft6,28(sp)
      d2:	0000                	unimp
      d4:	7274                	flw	fa3,100(a2)
      d6:	7061                	c.lui	zero,0xffff8
      d8:	655f 746e 7972      	0x7972746e655f
      de:	532e                	lw	t1,232(sp)
      e0:	0100                	addi	s0,sp,128
      e2:	0000                	unimp
      e4:	0000                	unimp
      e6:	0205                	addi	tp,tp,1
      e8:	0068                	addi	a0,sp,12
      ea:	0000                	unimp
      ec:	03010903          	lb	s2,48(sp)
      f0:	0902                	c.slli64	s2
      f2:	0004                	0x4
      f4:	0301                	addi	t1,t1,0
      f6:	0901                	addi	s2,s2,0
      f8:	0004                	0x4
      fa:	0301                	addi	t1,t1,0
      fc:	0901                	addi	s2,s2,0
      fe:	0004                	0x4
     100:	0301                	addi	t1,t1,0
     102:	0901                	addi	s2,s2,0
     104:	0004                	0x4
     106:	0301                	addi	t1,t1,0
     108:	0901                	addi	s2,s2,0
     10a:	0004                	0x4
     10c:	0301                	addi	t1,t1,0
     10e:	0901                	addi	s2,s2,0
     110:	0004                	0x4
     112:	0301                	addi	t1,t1,0
     114:	0901                	addi	s2,s2,0
     116:	0004                	0x4
     118:	0301                	addi	t1,t1,0
     11a:	0901                	addi	s2,s2,0
     11c:	0004                	0x4
     11e:	0301                	addi	t1,t1,0
     120:	0901                	addi	s2,s2,0
     122:	0004                	0x4
     124:	0301                	addi	t1,t1,0
     126:	0901                	addi	s2,s2,0
     128:	0004                	0x4
     12a:	0301                	addi	t1,t1,0
     12c:	0901                	addi	s2,s2,0
     12e:	0004                	0x4
     130:	0301                	addi	t1,t1,0
     132:	0901                	addi	s2,s2,0
     134:	0004                	0x4
     136:	0301                	addi	t1,t1,0
     138:	0901                	addi	s2,s2,0
     13a:	0004                	0x4
     13c:	0301                	addi	t1,t1,0
     13e:	0901                	addi	s2,s2,0
     140:	0004                	0x4
     142:	0301                	addi	t1,t1,0
     144:	0901                	addi	s2,s2,0
     146:	0004                	0x4
     148:	0301                	addi	t1,t1,0
     14a:	0901                	addi	s2,s2,0
     14c:	0004                	0x4
     14e:	0301                	addi	t1,t1,0
     150:	0901                	addi	s2,s2,0
     152:	0004                	0x4
     154:	0301                	addi	t1,t1,0
     156:	0901                	addi	s2,s2,0
     158:	0004                	0x4
     15a:	0301                	addi	t1,t1,0
     15c:	0901                	addi	s2,s2,0
     15e:	0004                	0x4
     160:	0301                	addi	t1,t1,0
     162:	0901                	addi	s2,s2,0
     164:	0004                	0x4
     166:	0301                	addi	t1,t1,0
     168:	0901                	addi	s2,s2,0
     16a:	0004                	0x4
     16c:	0301                	addi	t1,t1,0
     16e:	0901                	addi	s2,s2,0
     170:	0004                	0x4
     172:	0301                	addi	t1,t1,0
     174:	0901                	addi	s2,s2,0
     176:	0004                	0x4
     178:	0301                	addi	t1,t1,0
     17a:	0901                	addi	s2,s2,0
     17c:	0004                	0x4
     17e:	0301                	addi	t1,t1,0
     180:	0901                	addi	s2,s2,0
     182:	0004                	0x4
     184:	0301                	addi	t1,t1,0
     186:	0901                	addi	s2,s2,0
     188:	0004                	0x4
     18a:	0301                	addi	t1,t1,0
     18c:	0901                	addi	s2,s2,0
     18e:	0004                	0x4
     190:	0301                	addi	t1,t1,0
     192:	0901                	addi	s2,s2,0
     194:	0004                	0x4
     196:	0301                	addi	t1,t1,0
     198:	0901                	addi	s2,s2,0
     19a:	0004                	0x4
     19c:	0301                	addi	t1,t1,0
     19e:	0901                	addi	s2,s2,0
     1a0:	0004                	0x4
     1a2:	0301                	addi	t1,t1,0
     1a4:	0901                	addi	s2,s2,0
     1a6:	0004                	0x4
     1a8:	0301                	addi	t1,t1,0
     1aa:	0902                	c.slli64	s2
     1ac:	0004                	0x4
     1ae:	0301                	addi	t1,t1,0
     1b0:	0901                	addi	s2,s2,0
     1b2:	0004                	0x4
     1b4:	0301                	addi	t1,t1,0
     1b6:	0902                	c.slli64	s2
     1b8:	0004                	0x4
     1ba:	0301                	addi	t1,t1,0
     1bc:	0901                	addi	s2,s2,0
     1be:	0004                	0x4
     1c0:	0301                	addi	t1,t1,0
     1c2:	0902                	c.slli64	s2
     1c4:	0004                	0x4
     1c6:	0301                	addi	t1,t1,0
     1c8:	0901                	addi	s2,s2,0
     1ca:	0004                	0x4
     1cc:	0301                	addi	t1,t1,0
     1ce:	00040903          	lb	s2,0(s0) # ffff9000 <__freertos_irq_stack_top+0xfeff5000>
     1d2:	0301                	addi	t1,t1,0
     1d4:	0901                	addi	s2,s2,0
     1d6:	0004                	0x4
     1d8:	0301                	addi	t1,t1,0
     1da:	00040903          	lb	s2,0(s0)
     1de:	0301                	addi	t1,t1,0
     1e0:	0901                	addi	s2,s2,0
     1e2:	0004                	0x4
     1e4:	0301                	addi	t1,t1,0
     1e6:	0901                	addi	s2,s2,0
     1e8:	0004                	0x4
     1ea:	0301                	addi	t1,t1,0
     1ec:	0901                	addi	s2,s2,0
     1ee:	0004                	0x4
     1f0:	0301                	addi	t1,t1,0
     1f2:	0901                	addi	s2,s2,0
     1f4:	0004                	0x4
     1f6:	0301                	addi	t1,t1,0
     1f8:	0901                	addi	s2,s2,0
     1fa:	0004                	0x4
     1fc:	0301                	addi	t1,t1,0
     1fe:	0901                	addi	s2,s2,0
     200:	0004                	0x4
     202:	0301                	addi	t1,t1,0
     204:	0901                	addi	s2,s2,0
     206:	0004                	0x4
     208:	0301                	addi	t1,t1,0
     20a:	0901                	addi	s2,s2,0
     20c:	0004                	0x4
     20e:	0301                	addi	t1,t1,0
     210:	0901                	addi	s2,s2,0
     212:	0004                	0x4
     214:	0301                	addi	t1,t1,0
     216:	0901                	addi	s2,s2,0
     218:	0004                	0x4
     21a:	0301                	addi	t1,t1,0
     21c:	0901                	addi	s2,s2,0
     21e:	0004                	0x4
     220:	0301                	addi	t1,t1,0
     222:	0901                	addi	s2,s2,0
     224:	0004                	0x4
     226:	0301                	addi	t1,t1,0
     228:	0901                	addi	s2,s2,0
     22a:	0004                	0x4
     22c:	0301                	addi	t1,t1,0
     22e:	0901                	addi	s2,s2,0
     230:	0004                	0x4
     232:	0301                	addi	t1,t1,0
     234:	0901                	addi	s2,s2,0
     236:	0004                	0x4
     238:	0301                	addi	t1,t1,0
     23a:	0901                	addi	s2,s2,0
     23c:	0004                	0x4
     23e:	0301                	addi	t1,t1,0
     240:	0901                	addi	s2,s2,0
     242:	0004                	0x4
     244:	0301                	addi	t1,t1,0
     246:	0901                	addi	s2,s2,0
     248:	0004                	0x4
     24a:	0301                	addi	t1,t1,0
     24c:	0901                	addi	s2,s2,0
     24e:	0004                	0x4
     250:	0301                	addi	t1,t1,0
     252:	0901                	addi	s2,s2,0
     254:	0004                	0x4
     256:	0301                	addi	t1,t1,0
     258:	0901                	addi	s2,s2,0
     25a:	0004                	0x4
     25c:	0301                	addi	t1,t1,0
     25e:	0901                	addi	s2,s2,0
     260:	0004                	0x4
     262:	0301                	addi	t1,t1,0
     264:	0901                	addi	s2,s2,0
     266:	0004                	0x4
     268:	0301                	addi	t1,t1,0
     26a:	0901                	addi	s2,s2,0
     26c:	0004                	0x4
     26e:	0301                	addi	t1,t1,0
     270:	0901                	addi	s2,s2,0
     272:	0004                	0x4
     274:	0301                	addi	t1,t1,0
     276:	0901                	addi	s2,s2,0
     278:	0004                	0x4
     27a:	0301                	addi	t1,t1,0
     27c:	0901                	addi	s2,s2,0
     27e:	0004                	0x4
     280:	0301                	addi	t1,t1,0
     282:	0901                	addi	s2,s2,0
     284:	0004                	0x4
     286:	0301                	addi	t1,t1,0
     288:	0901                	addi	s2,s2,0
     28a:	0004                	0x4
     28c:	0301                	addi	t1,t1,0
     28e:	0901                	addi	s2,s2,0
     290:	0004                	0x4
     292:	0301                	addi	t1,t1,0
     294:	0902                	c.slli64	s2
     296:	0004                	0x4
     298:	0301                	addi	t1,t1,0
     29a:	0902                	c.slli64	s2
     29c:	0004                	0x4
     29e:	0301                	addi	t1,t1,0
     2a0:	0905                	addi	s2,s2,1
     2a2:	0004                	0x4
     2a4:	0901                	addi	s2,s2,0
     2a6:	0004                	0x4
     2a8:	0100                	addi	s0,sp,128
     2aa:	dd01                	beqz	a0,1c2 <main+0x32>
     2ac:	0000                	unimp
     2ae:	0300                	addi	s0,sp,384
     2b0:	4f00                	lw	s0,24(a4)
     2b2:	0000                	unimp
     2b4:	0100                	addi	s0,sp,128
     2b6:	fb01                	bnez	a4,1c6 <main+0x36>
     2b8:	0d0e                	slli	s10,s10,0x3
     2ba:	0100                	addi	s0,sp,128
     2bc:	0101                	addi	sp,sp,0
     2be:	0001                	nop
     2c0:	0000                	unimp
     2c2:	0001                	nop
     2c4:	0100                	addi	s0,sp,128
     2c6:	00637273          	csrrci	tp,0x6,6
     2ca:	2f637273          	csrrci	tp,0x2f6,6
     2ce:	2e2e                	fld	ft8,200(sp)
     2d0:	636e692f          	0x636e692f
     2d4:	756c                	flw	fa1,108(a0)
     2d6:	6564                	flw	fs1,76(a0)
     2d8:	0000                	unimp
     2da:	616d                	addi	sp,sp,240
     2dc:	6e69                	lui	t3,0x1a
     2de:	632e                	flw	ft6,200(sp)
     2e0:	0100                	addi	s0,sp,128
     2e2:	0000                	unimp
     2e4:	7078                	flw	fa4,100(s0)
     2e6:	6972                	flw	fs2,28(sp)
     2e8:	746e                	flw	fs0,248(sp)
     2ea:	2e66                	fld	ft8,88(sp)
     2ec:	0068                	addi	a0,sp,12
     2ee:	0002                	c.slli64	zero
     2f0:	7000                	flw	fs0,32(s0)
     2f2:	6f72                	flw	ft10,28(sp)
     2f4:	73736563          	bltu	t1,s7,a1e <sec_clock_clr+0x6>
     2f8:	665f 6e75 2e63      	0x2e636e75665f
     2fe:	0068                	addi	a0,sp,12
     300:	0002                	c.slli64	zero
     302:	0000                	unimp
     304:	0105                	addi	sp,sp,1
     306:	0500                	addi	s0,sp,640
     308:	9002                	ebreak
     30a:	0001                	nop
     30c:	1a00                	addi	s0,sp,304
     30e:	0505                	addi	a0,a0,1
     310:	10090203          	lb	tp,256(s2)
     314:	0100                	addi	s0,sp,128
     316:	0905                	addi	s2,s2,1
     318:	04090203          	lb	tp,64(s2)
     31c:	0100                	addi	s0,sp,128
     31e:	04090103          	lb	sp,64(s2)
     322:	0100                	addi	s0,sp,128
     324:	1a05                	addi	s4,s4,-31
     326:	04090103          	lb	sp,64(s2)
     32a:	0100                	addi	s0,sp,128
     32c:	0b05                	addi	s6,s6,1
     32e:	04090003          	lb	zero,64(s2)
     332:	0100                	addi	s0,sp,128
     334:	0d05                	addi	s10,s10,1
     336:	04090103          	lb	sp,64(s2)
     33a:	0100                	addi	s0,sp,128
     33c:	04090103          	lb	sp,64(s2)
     340:	0100                	addi	s0,sp,128
     342:	2005                	jal	362 <xvprintf+0x16>
     344:	0c090103          	lb	sp,192(s2)
     348:	0100                	addi	s0,sp,128
     34a:	1105                	addi	sp,sp,-31
     34c:	04090003          	lb	zero,64(s2)
     350:	0100                	addi	s0,sp,128
     352:	0d05                	addi	s10,s10,1
     354:	08090103          	lb	sp,128(s2)
     358:	0100                	addi	s0,sp,128
     35a:	04090103          	lb	sp,64(s2)
     35e:	0100                	addi	s0,sp,128
     360:	2005                	jal	380 <xvprintf+0x34>
     362:	0c090103          	lb	sp,192(s2)
     366:	0100                	addi	s0,sp,128
     368:	1105                	addi	sp,sp,-31
     36a:	04090003          	lb	zero,64(s2)
     36e:	0100                	addi	s0,sp,128
     370:	0d05                	addi	s10,s10,1
     372:	08090103          	lb	sp,128(s2)
     376:	0100                	addi	s0,sp,128
     378:	04090103          	lb	sp,64(s2)
     37c:	0100                	addi	s0,sp,128
     37e:	0905                	addi	s2,s2,1
     380:	08097603          	0x8097603
     384:	0100                	addi	s0,sp,128
     386:	0409                	addi	s0,s0,2
     388:	0000                	unimp
     38a:	0101                	addi	sp,sp,0
     38c:	01d0                	addi	a2,sp,196
     38e:	0000                	unimp
     390:	00d80003          	lb	zero,13(a6)
     394:	0000                	unimp
     396:	0101                	addi	sp,sp,0
     398:	000d0efb          	0xd0efb
     39c:	0101                	addi	sp,sp,0
     39e:	0101                	addi	sp,sp,0
     3a0:	0000                	unimp
     3a2:	0100                	addi	s0,sp,128
     3a4:	0000                	unimp
     3a6:	7301                	lui	t1,0xfffe0
     3a8:	6372                	flw	ft6,28(sp)
     3aa:	6400                	flw	fs0,8(s0)
     3ac:	5c3a                	lw	s8,172(sp)
     3ae:	6f74                	flw	fa3,92(a4)
     3b0:	5c736c6f          	jal	s8,37176 <__stack_size+0x35176>
     3b4:	6972                	flw	fs2,28(sp)
     3b6:	2d766373          	csrrsi	t1,0x2d7,12
     3ba:	6f6e                	flw	ft10,216(sp)
     3bc:	656e                	flw	fa0,216(sp)
     3be:	672d                	lui	a4,0xb
     3c0:	382d6363          	bltu	s10,sp,746 <xvprintf+0x3fa>
     3c4:	322e                	fld	ft4,232(sp)
     3c6:	302e                	fld	ft0,232(sp)
     3c8:	725c                	flw	fa5,36(a2)
     3ca:	7369                	lui	t1,0xffffa
     3cc:	6e2d7663          	bgeu	s10,sp,ab8 <get_sec_clock_cur_time+0x10>
     3d0:	2d656e6f          	jal	t3,566a6 <__stack_size+0x546a6>
     3d4:	6d65                	lui	s10,0x19
     3d6:	6562                	flw	fa0,24(sp)
     3d8:	5c64                	lw	s1,124(s0)
     3da:	6e69                	lui	t3,0x1a
     3dc:	64756c63          	bltu	a0,t2,a34 <sec_clock_clr+0x1c>
     3e0:	5c65                	li	s8,-7
     3e2:	616d                	addi	sp,sp,240
     3e4:	6e696863          	bltu	s2,t1,ad4 <get_sec_clock_cur_time+0x2c>
     3e8:	0065                	c.nop	25
     3ea:	3a64                	fld	fs1,240(a2)
     3ec:	745c                	flw	fa5,44(s0)
     3ee:	736c6f6f          	jal	t5,c6b24 <__stack_size+0xc4b24>
     3f2:	725c                	flw	fa5,36(a2)
     3f4:	7369                	lui	t1,0xffffa
     3f6:	6e2d7663          	bgeu	s10,sp,ae2 <get_sec_clock_cur_time+0x3a>
     3fa:	2d656e6f          	jal	t3,566d0 <__stack_size+0x546d0>
     3fe:	2d636367          	0x2d636367
     402:	2e38                	fld	fa4,88(a2)
     404:	2e32                	fld	ft8,264(sp)
     406:	5c30                	lw	a2,120(s0)
     408:	6972                	flw	fs2,28(sp)
     40a:	2d766373          	csrrsi	t1,0x2d7,12
     40e:	6f6e                	flw	ft10,216(sp)
     410:	656e                	flw	fa0,216(sp)
     412:	652d                	lui	a0,0xb
     414:	626d                	lui	tp,0x1b
     416:	6465                	lui	s0,0x19
     418:	695c                	flw	fa5,20(a0)
     41a:	636e                	flw	ft6,216(sp)
     41c:	756c                	flw	fa1,108(a0)
     41e:	6564                	flw	fs1,76(a0)
     420:	735c                	flw	fa5,36(a4)
     422:	7379                	lui	t1,0xffffe
     424:	7300                	flw	fs0,32(a4)
     426:	6372                	flw	ft6,28(sp)
     428:	2f2e2e2f          	0x2f2e2e2f
     42c:	6e69                	lui	t3,0x1a
     42e:	64756c63          	bltu	a0,t2,a86 <get_sec_clock_init_time+0x6>
     432:	0065                	c.nop	25
     434:	7500                	flw	fs0,40(a0)
     436:	7261                	lui	tp,0xffff8
     438:	2e74                	fld	fa3,216(a2)
     43a:	00010063          	beqz	sp,43a <xvprintf+0xee>
     43e:	5f00                	lw	s0,56(a4)
     440:	6564                	flw	fs1,76(a0)
     442:	6166                	flw	ft2,88(sp)
     444:	6c75                	lui	s8,0x1d
     446:	5f74                	lw	a3,124(a4)
     448:	7974                	flw	fa3,116(a0)
     44a:	6570                	flw	fa2,76(a0)
     44c:	00682e73          	csrrs	t3,0x6,a6
     450:	0002                	c.slli64	zero
     452:	5f00                	lw	s0,56(a4)
     454:	69647473          	csrrci	s0,0x696,8
     458:	746e                	flw	fs0,248(sp)
     45a:	682e                	flw	fa6,200(sp)
     45c:	0300                	addi	s0,sp,384
     45e:	0000                	unimp
     460:	7078                	flw	fa4,100(s0)
     462:	6972                	flw	fs2,28(sp)
     464:	746e                	flw	fs0,248(sp)
     466:	2e66                	fld	ft8,88(sp)
     468:	0068                	addi	a0,sp,12
     46a:	0004                	0x4
     46c:	0000                	unimp
     46e:	0105                	addi	sp,sp,1
     470:	0500                	addi	s0,sp,640
     472:	fc02                	fsw	ft0,56(sp)
     474:	0001                	nop
     476:	1a00                	addi	s0,sp,304
     478:	0b05                	addi	s6,s6,1
     47a:	14090103          	lb	sp,320(s2)
     47e:	0100                	addi	s0,sp,128
     480:	0c05                	addi	s8,s8,1
     482:	0200                	addi	s0,sp,256
     484:	0104                	addi	s1,sp,128
     486:	04090003          	lb	zero,64(s2)
     48a:	0100                	addi	s0,sp,128
     48c:	2405                	jal	6ac <xvprintf+0x360>
     48e:	0200                	addi	s0,sp,256
     490:	0104                	addi	s1,sp,128
     492:	0c090003          	lb	zero,192(s2)
     496:	0100                	addi	s0,sp,128
     498:	0b05                	addi	s6,s6,1
     49a:	0200                	addi	s0,sp,256
     49c:	0104                	addi	s1,sp,128
     49e:	04090003          	lb	zero,64(s2)
     4a2:	0100                	addi	s0,sp,128
     4a4:	0505                	addi	a0,a0,1
     4a6:	04090103          	lb	sp,64(s2)
     4aa:	0100                	addi	s0,sp,128
     4ac:	1d05                	addi	s10,s10,-31
     4ae:	08090003          	lb	zero,128(s2)
     4b2:	0100                	addi	s0,sp,128
     4b4:	0105                	addi	sp,sp,1
     4b6:	08090103          	lb	sp,128(s2)
     4ba:	0100                	addi	s0,sp,128
     4bc:	1009                	c.nop	-30
     4be:	0000                	unimp
     4c0:	0101                	addi	sp,sp,0
     4c2:	0105                	addi	sp,sp,1
     4c4:	0500                	addi	s0,sp,640
     4c6:	0002                	c.slli64	zero
     4c8:	0000                	unimp
     4ca:	0300                	addi	s0,sp,384
     4cc:	1105010f          	0x1105010f
     4d0:	00090103          	lb	sp,0(s2)
     4d4:	0100                	addi	s0,sp,128
     4d6:	1d05                	addi	s10,s10,-31
     4d8:	00090103          	lb	sp,0(s2)
     4dc:	0100                	addi	s0,sp,128
     4de:	0b05                	addi	s6,s6,1
     4e0:	00090103          	lb	sp,0(s2)
     4e4:	0100                	addi	s0,sp,128
     4e6:	00090103          	lb	sp,0(s2)
     4ea:	0100                	addi	s0,sp,128
     4ec:	3605                	jal	c <_start+0xc>
     4ee:	0200                	addi	s0,sp,256
     4f0:	0104                	addi	s1,sp,128
     4f2:	00090003          	lb	zero,0(s2)
     4f6:	0100                	addi	s0,sp,128
     4f8:	0e05                	addi	t3,t3,1
     4fa:	00097f03          	0x97f03
     4fe:	0100                	addi	s0,sp,128
     500:	2605                	jal	820 <xprintf+0x3c>
     502:	00090003          	lb	zero,0(s2)
     506:	0100                	addi	s0,sp,128
     508:	0b05                	addi	s6,s6,1
     50a:	00090003          	lb	zero,0(s2)
     50e:	0100                	addi	s0,sp,128
     510:	0d05                	addi	s10,s10,1
     512:	00090303          	lb	t1,0(s2)
     516:	0100                	addi	s0,sp,128
     518:	2505                	jal	b38 <refresh_button_level+0x30>
     51a:	00090003          	lb	zero,0(s2)
     51e:	0100                	addi	s0,sp,128
     520:	0105                	addi	sp,sp,1
     522:	00090103          	lb	sp,0(s2)
     526:	0100                	addi	s0,sp,128
     528:	0009                	c.nop	2
     52a:	0000                	unimp
     52c:	0101                	addi	sp,sp,0
     52e:	0105                	addi	sp,sp,1
     530:	0500                	addi	s0,sp,640
     532:	4802                	lw	a6,0(sp)
     534:	0002                	c.slli64	zero
     536:	0300                	addi	s0,sp,384
     538:	011a                	slli	sp,sp,0x6
     53a:	0505                	addi	a0,a0,1
     53c:	0c090203          	lb	tp,192(s2)
     540:	0100                	addi	s0,sp,128
     542:	1b05                	addi	s6,s6,-31
     544:	04090003          	lb	zero,64(s2)
     548:	0100                	addi	s0,sp,128
     54a:	0505                	addi	a0,a0,1
     54c:	08090203          	lb	tp,128(s2)
     550:	0100                	addi	s0,sp,128
     552:	0105                	addi	sp,sp,1
     554:	0c090103          	lb	sp,192(s2)
     558:	0100                	addi	s0,sp,128
     55a:	1009                	c.nop	-30
     55c:	0000                	unimp
     55e:	0101                	addi	sp,sp,0
     560:	000005cf          	fnmadd.s	fa1,ft0,ft0,ft0,rne
     564:	00910003          	lb	zero,9(sp)
     568:	0000                	unimp
     56a:	0101                	addi	sp,sp,0
     56c:	000d0efb          	0xd0efb
     570:	0101                	addi	sp,sp,0
     572:	0101                	addi	sp,sp,0
     574:	0000                	unimp
     576:	0100                	addi	s0,sp,128
     578:	0000                	unimp
     57a:	7301                	lui	t1,0xfffe0
     57c:	6372                	flw	ft6,28(sp)
     57e:	6400                	flw	fs0,8(s0)
     580:	5c3a                	lw	s8,172(sp)
     582:	6f74                	flw	fa3,92(a4)
     584:	5c736c6f          	jal	s8,3734a <__stack_size+0x3534a>
     588:	6972                	flw	fs2,28(sp)
     58a:	2d766373          	csrrsi	t1,0x2d7,12
     58e:	6f6e                	flw	ft10,216(sp)
     590:	656e                	flw	fa0,216(sp)
     592:	672d                	lui	a4,0xb
     594:	382d6363          	bltu	s10,sp,91a <set_scan_seg_num+0x7e>
     598:	322e                	fld	ft4,232(sp)
     59a:	302e                	fld	ft0,232(sp)
     59c:	6c5c                	flw	fa5,28(s0)
     59e:	6269                	lui	tp,0x1a
     5a0:	675c                	flw	fa5,12(a4)
     5a2:	725c6363          	bltu	s8,t0,cc8 <seg_show_cur_time+0x1c>
     5a6:	7369                	lui	t1,0xffffa
     5a8:	6e2d7663          	bgeu	s10,sp,c94 <check_alarm+0x3c>
     5ac:	2d656e6f          	jal	t3,56882 <__stack_size+0x54882>
     5b0:	6d65                	lui	s10,0x19
     5b2:	6562                	flw	fa0,24(sp)
     5b4:	5c64                	lw	s1,124(s0)
     5b6:	2e38                	fld	fa4,88(a2)
     5b8:	2e32                	fld	ft8,264(sp)
     5ba:	5c30                	lw	a2,120(s0)
     5bc:	6e69                	lui	t3,0x1a
     5be:	64756c63          	bltu	a0,t2,c16 <digital_clock_init+0x82>
     5c2:	0065                	c.nop	25
     5c4:	2f637273          	csrrci	tp,0x2f6,6
     5c8:	2e2e                	fld	ft8,200(sp)
     5ca:	636e692f          	0x636e692f
     5ce:	756c                	flw	fa1,108(a0)
     5d0:	6564                	flw	fs1,76(a0)
     5d2:	0000                	unimp
     5d4:	7078                	flw	fa4,100(s0)
     5d6:	6972                	flw	fs2,28(sp)
     5d8:	746e                	flw	fs0,248(sp)
     5da:	2e66                	fld	ft8,88(sp)
     5dc:	00010063          	beqz	sp,5dc <xvprintf+0x290>
     5e0:	7300                	flw	fs0,32(a4)
     5e2:	6474                	flw	fa3,76(s0)
     5e4:	7261                	lui	tp,0xffff8
     5e6:	00682e67          	0x682e67
     5ea:	0002                	c.slli64	zero
     5ec:	7800                	flw	fs0,48(s0)
     5ee:	7270                	flw	fa2,100(a2)
     5f0:	6e69                	lui	t3,0x1a
     5f2:	6674                	flw	fa3,76(a2)
     5f4:	682e                	flw	fa6,200(sp)
     5f6:	0300                	addi	s0,sp,384
     5f8:	0000                	unimp
     5fa:	0500                	addi	s0,sp,640
     5fc:	0001                	nop
     5fe:	0205                	addi	tp,tp,1
     600:	027c                	addi	a5,sp,268
     602:	0000                	unimp
     604:	05011a03          	lh	s4,80(sp)
     608:	0305                	addi	t1,t1,1
     60a:	0901                	addi	s2,s2,0
     60c:	0018                	0x18
     60e:	0501                	addi	a0,a0,0
     610:	001d                	c.nop	7
     612:	0402                	c.slli64	s0
     614:	0301                	addi	t1,t1,0
     616:	0900                	addi	s0,sp,144
     618:	000c                	0xc
     61a:	0501                	addi	a0,a0,0
     61c:	0306                	slli	t1,t1,0x1
     61e:	0902                	c.slli64	s2
     620:	0008                	0x8
     622:	0501                	addi	a0,a0,0
     624:	0305                	addi	t1,t1,1
     626:	0900                	addi	s0,sp,144
     628:	0008                	0x8
     62a:	0501                	addi	a0,a0,0
     62c:	030a                	slli	t1,t1,0x2
     62e:	0901                	addi	s2,s2,0
     630:	0004                	0x4
     632:	0501                	addi	a0,a0,0
     634:	030d                	addi	t1,t1,3
     636:	0900                	addi	s0,sp,144
     638:	0014                	0x14
     63a:	0501                	addi	a0,a0,0
     63c:	09010303          	lb	t1,144(sp)
     640:	0008                	0x8
     642:	0501                	addi	a0,a0,0
     644:	0306                	slli	t1,t1,0x1
     646:	00040903          	lb	s2,0(s0) # 19000 <__stack_size+0x17000>
     64a:	0501                	addi	a0,a0,0
     64c:	0305                	addi	t1,t1,1
     64e:	0900                	addi	s0,sp,144
     650:	0004                	0x4
     652:	0501                	addi	a0,a0,0
     654:	0011                	c.nop	4
     656:	0402                	c.slli64	s0
     658:	0301                	addi	t1,t1,0
     65a:	0900                	addi	s0,sp,144
     65c:	0004                	0x4
     65e:	0501                	addi	a0,a0,0
     660:	0301                	addi	t1,t1,0
     662:	0901                	addi	s2,s2,0
     664:	0010                	0x10
     666:	0901                	addi	s2,s2,0
     668:	0010                	0x10
     66a:	0100                	addi	s0,sp,128
     66c:	0501                	addi	a0,a0,0
     66e:	0001                	nop
     670:	0205                	addi	tp,tp,1
     672:	02fc                	addi	a5,sp,332
     674:	0000                	unimp
     676:	05012d03          	lw	s10,80(sp)
     67a:	0308                	addi	a0,sp,384
     67c:	0901                	addi	s2,s2,0
     67e:	0014                	0x14
     680:	0501                	addi	a0,a0,0
     682:	030d                	addi	t1,t1,3
     684:	0901                	addi	s2,s2,0
     686:	0004                	0x4
     688:	0501                	addi	a0,a0,0
     68a:	09000303          	lb	t1,144(zero) # 90 <trap_entry+0x28>
     68e:	000c                	0xc
     690:	0501                	addi	a0,a0,0
     692:	0309                	addi	t1,t1,2
     694:	097f                	0x97f
     696:	000c                	0xc
     698:	0501                	addi	a0,a0,0
     69a:	0308                	addi	a0,sp,384
     69c:	0900                	addi	s0,sp,144
     69e:	0008                	0x8
     6a0:	0501                	addi	a0,a0,0
     6a2:	0301                	addi	t1,t1,0
     6a4:	0902                	c.slli64	s2
     6a6:	0004                	0x4
     6a8:	0901                	addi	s2,s2,0
     6aa:	0014                	0x14
     6ac:	0100                	addi	s0,sp,128
     6ae:	0501                	addi	a0,a0,0
     6b0:	0001                	nop
     6b2:	0205                	addi	tp,tp,1
     6b4:	034c                	addi	a1,sp,388
     6b6:	0000                	unimp
     6b8:	0100c903          	lbu	s2,16(ra)
     6bc:	0b05                	addi	s6,s6,1
     6be:	18090703          	lb	a4,384(s2)
     6c2:	0100                	addi	s0,sp,128
     6c4:	0505                	addi	a0,a0,1
     6c6:	0c090003          	lb	zero,192(s2)
     6ca:	0100                	addi	s0,sp,128
     6cc:	0605                	addi	a2,a2,1
     6ce:	08090103          	lb	sp,128(s2)
     6d2:	0100                	addi	s0,sp,128
     6d4:	08090103          	lb	sp,128(s2)
     6d8:	0100                	addi	s0,sp,128
     6da:	0405                	addi	s0,s0,1
     6dc:	0c090103          	lb	sp,192(s2)
     6e0:	0100                	addi	s0,sp,128
     6e2:	0505                	addi	a0,a0,1
     6e4:	10090203          	lb	tp,256(s2)
     6e8:	0100                	addi	s0,sp,128
     6ea:	0b05                	addi	s6,s6,1
     6ec:	04090103          	lb	sp,64(s2)
     6f0:	0100                	addi	s0,sp,128
     6f2:	0505                	addi	a0,a0,1
     6f4:	0c090003          	lb	zero,192(s2)
     6f8:	0100                	addi	s0,sp,128
     6fa:	0605                	addi	a2,a2,1
     6fc:	08090103          	lb	sp,128(s2)
     700:	0100                	addi	s0,sp,128
     702:	0c090103          	lb	sp,192(s2)
     706:	0100                	addi	s0,sp,128
     708:	1305                	addi	t1,t1,-31
     70a:	08090003          	lb	zero,128(s2)
     70e:	0100                	addi	s0,sp,128
     710:	0d05                	addi	s10,s10,1
     712:	0c090003          	lb	zero,192(s2)
     716:	0100                	addi	s0,sp,128
     718:	0705                	addi	a4,a4,1
     71a:	0c090203          	lb	tp,192(s2)
     71e:	0100                	addi	s0,sp,128
     720:	0c090103          	lb	sp,192(s2)
     724:	0100                	addi	s0,sp,128
     726:	1405                	addi	s0,s0,-31
     728:	08090003          	lb	zero,128(s2)
     72c:	0100                	addi	s0,sp,128
     72e:	0e05                	addi	t3,t3,1
     730:	0c090003          	lb	zero,192(s2)
     734:	0100                	addi	s0,sp,128
     736:	0a05                	addi	s4,s4,1
     738:	08090303          	lb	t1,128(s2)
     73c:	0100                	addi	s0,sp,128
     73e:	0305                	addi	t1,t1,1
     740:	04090003          	lb	zero,64(s2)
     744:	0100                	addi	s0,sp,128
     746:	0a05                	addi	s4,s4,1
     748:	0200                	addi	s0,sp,256
     74a:	0404                	addi	s1,sp,512
     74c:	04090103          	lb	sp,64(s2)
     750:	0100                	addi	s0,sp,128
     752:	0f05                	addi	t5,t5,1
     754:	0200                	addi	s0,sp,256
     756:	0404                	addi	s1,sp,512
     758:	18090003          	lb	zero,384(s2)
     75c:	0100                	addi	s0,sp,128
     75e:	0605                	addi	a2,a2,1
     760:	0200                	addi	s0,sp,256
     762:	0404                	addi	s1,sp,512
     764:	08090003          	lb	zero,128(s2)
     768:	0100                	addi	s0,sp,128
     76a:	2d05                	jal	d9a <seg_show_cur_time+0xee>
     76c:	0200                	addi	s0,sp,256
     76e:	0404                	addi	s1,sp,512
     770:	08097f03          	0x8097f03
     774:	0100                	addi	s0,sp,128
     776:	2705                	jal	e96 <seg_show_tar_time+0xb6>
     778:	0200                	addi	s0,sp,256
     77a:	0404                	addi	s1,sp,512
     77c:	0c090003          	lb	zero,192(s2)
     780:	0100                	addi	s0,sp,128
     782:	0305                	addi	t1,t1,1
     784:	0200                	addi	s0,sp,256
     786:	0104                	addi	s1,sp,128
     788:	08090003          	lb	zero,128(s2)
     78c:	0100                	addi	s0,sp,128
     78e:	1805                	addi	a6,a6,-31
     790:	0200                	addi	s0,sp,256
     792:	0304                	addi	s1,sp,384
     794:	0c090003          	lb	zero,192(s2)
     798:	0100                	addi	s0,sp,128
     79a:	0605                	addi	a2,a2,1
     79c:	0c090203          	lb	tp,192(s2)
     7a0:	0100                	addi	s0,sp,128
     7a2:	1005                	c.nop	-31
     7a4:	0200                	addi	s0,sp,256
     7a6:	0104                	addi	s1,sp,128
     7a8:	0c090003          	lb	zero,192(s2)
     7ac:	0100                	addi	s0,sp,128
     7ae:	0605                	addi	a2,a2,1
     7b0:	0c090103          	lb	sp,192(s2)
     7b4:	0100                	addi	s0,sp,128
     7b6:	1405                	addi	s0,s0,-31
     7b8:	0c090003          	lb	zero,192(s2)
     7bc:	0100                	addi	s0,sp,128
     7be:	0e05                	addi	t3,t3,1
     7c0:	0c090003          	lb	zero,192(s2)
     7c4:	0100                	addi	s0,sp,128
     7c6:	0605                	addi	a2,a2,1
     7c8:	08090203          	lb	tp,128(s2)
     7cc:	0100                	addi	s0,sp,128
     7ce:	0505                	addi	a0,a0,1
     7d0:	08090103          	lb	sp,128(s2)
     7d4:	0100                	addi	s0,sp,128
     7d6:	0605                	addi	a2,a2,1
     7d8:	08090103          	lb	sp,128(s2)
     7dc:	0100                	addi	s0,sp,128
     7de:	1305                	addi	t1,t1,-31
     7e0:	0200                	addi	s0,sp,256
     7e2:	0104                	addi	s1,sp,128
     7e4:	0c090003          	lb	zero,192(s2)
     7e8:	0100                	addi	s0,sp,128
     7ea:	0305                	addi	t1,t1,1
     7ec:	0c090103          	lb	sp,192(s2)
     7f0:	0100                	addi	s0,sp,128
     7f2:	0605                	addi	a2,a2,1
     7f4:	28090203          	lb	tp,640(s2)
     7f8:	0100                	addi	s0,sp,128
     7fa:	0b05                	addi	s6,s6,1
     7fc:	14090103          	lb	sp,320(s2)
     800:	0100                	addi	s0,sp,128
     802:	0405                	addi	s0,s0,1
     804:	04090003          	lb	zero,64(s2)
     808:	0100                	addi	s0,sp,128
     80a:	1705                	addi	a4,a4,-31
     80c:	0200                	addi	s0,sp,256
     80e:	0304                	addi	s1,sp,384
     810:	04090003          	lb	zero,64(s2)
     814:	0100                	addi	s0,sp,128
     816:	1105                	addi	sp,sp,-31
     818:	0200                	addi	s0,sp,256
     81a:	0104                	addi	s1,sp,128
     81c:	0c090003          	lb	zero,192(s2)
     820:	0100                	addi	s0,sp,128
     822:	0405                	addi	s0,s0,1
     824:	0200                	addi	s0,sp,256
     826:	0104                	addi	s1,sp,128
     828:	10090003          	lb	zero,256(s2)
     82c:	0100                	addi	s0,sp,128
     82e:	0a05                	addi	s4,s4,1
     830:	04090103          	lb	sp,64(s2)
     834:	0100                	addi	s0,sp,128
     836:	2005                	jal	856 <trap_handler+0x12>
     838:	0200                	addi	s0,sp,256
     83a:	0304                	addi	s1,sp,384
     83c:	04090003          	lb	zero,64(s2)
     840:	0100                	addi	s0,sp,128
     842:	0f05                	addi	t5,t5,1
     844:	0200                	addi	s0,sp,256
     846:	0104                	addi	s1,sp,128
     848:	08090003          	lb	zero,128(s2)
     84c:	0100                	addi	s0,sp,128
     84e:	0a05                	addi	s4,s4,1
     850:	0200                	addi	s0,sp,256
     852:	0104                	addi	s1,sp,128
     854:	08090003          	lb	zero,128(s2)
     858:	0100                	addi	s0,sp,128
     85a:	1805                	addi	a6,a6,-31
     85c:	0200                	addi	s0,sp,256
     85e:	0204                	addi	s1,sp,256
     860:	04090003          	lb	zero,64(s2)
     864:	0100                	addi	s0,sp,128
     866:	1405                	addi	s0,s0,-31
     868:	0200                	addi	s0,sp,256
     86a:	0204                	addi	s1,sp,256
     86c:	0c090003          	lb	zero,192(s2)
     870:	0100                	addi	s0,sp,128
     872:	0405                	addi	s0,s0,1
     874:	08090103          	lb	sp,128(s2)
     878:	0100                	addi	s0,sp,128
     87a:	0a05                	addi	s4,s4,1
     87c:	08090103          	lb	sp,128(s2)
     880:	0100                	addi	s0,sp,128
     882:	1405                	addi	s0,s0,-31
     884:	0200                	addi	s0,sp,256
     886:	0204                	addi	s1,sp,256
     888:	04090003          	lb	zero,64(s2)
     88c:	0100                	addi	s0,sp,128
     88e:	0c05                	addi	s8,s8,1
     890:	0200                	addi	s0,sp,256
     892:	0104                	addi	s1,sp,128
     894:	08090003          	lb	zero,128(s2)
     898:	0100                	addi	s0,sp,128
     89a:	0a05                	addi	s4,s4,1
     89c:	0200                	addi	s0,sp,256
     89e:	0104                	addi	s1,sp,128
     8a0:	0c090003          	lb	zero,192(s2)
     8a4:	0100                	addi	s0,sp,128
     8a6:	0405                	addi	s0,s0,1
     8a8:	08090103          	lb	sp,128(s2)
     8ac:	0100                	addi	s0,sp,128
     8ae:	1005                	c.nop	-31
     8b0:	04090203          	lb	tp,64(s2)
     8b4:	0100                	addi	s0,sp,128
     8b6:	0405                	addi	s0,s0,1
     8b8:	10090003          	lb	zero,256(s2)
     8bc:	0100                	addi	s0,sp,128
     8be:	0605                	addi	a2,a2,1
     8c0:	10090203          	lb	tp,256(s2)
     8c4:	0100                	addi	s0,sp,128
     8c6:	0405                	addi	s0,s0,1
     8c8:	08090003          	lb	zero,128(s2)
     8cc:	0100                	addi	s0,sp,128
     8ce:	0605                	addi	a2,a2,1
     8d0:	04090203          	lb	tp,64(s2)
     8d4:	0100                	addi	s0,sp,128
     8d6:	0405                	addi	s0,s0,1
     8d8:	08090003          	lb	zero,128(s2)
     8dc:	0100                	addi	s0,sp,128
     8de:	0605                	addi	a2,a2,1
     8e0:	04090303          	lb	t1,64(s2)
     8e4:	0100                	addi	s0,sp,128
     8e6:	0405                	addi	s0,s0,1
     8e8:	08090003          	lb	zero,128(s2)
     8ec:	0100                	addi	s0,sp,128
     8ee:	0605                	addi	a2,a2,1
     8f0:	04090203          	lb	tp,64(s2)
     8f4:	0100                	addi	s0,sp,128
     8f6:	0405                	addi	s0,s0,1
     8f8:	08090003          	lb	zero,128(s2)
     8fc:	0100                	addi	s0,sp,128
     8fe:	04090203          	lb	tp,64(s2)
     902:	0100                	addi	s0,sp,128
     904:	0a05                	addi	s4,s4,1
     906:	10090403          	lb	s0,256(s2)
     90a:	0100                	addi	s0,sp,128
     90c:	2305                	jal	e2c <seg_show_tar_time+0x4c>
     90e:	08090003          	lb	zero,128(s2)
     912:	0100                	addi	s0,sp,128
     914:	1105                	addi	sp,sp,-31
     916:	0200                	addi	s0,sp,256
     918:	0104                	addi	s1,sp,128
     91a:	04090003          	lb	zero,64(s2)
     91e:	0100                	addi	s0,sp,128
     920:	2305                	jal	e40 <seg_show_tar_time+0x60>
     922:	0200                	addi	s0,sp,256
     924:	0204                	addi	s1,sp,256
     926:	14090003          	lb	zero,320(s2)
     92a:	0100                	addi	s0,sp,128
     92c:	3905                	jal	55c <xvprintf+0x210>
     92e:	0200                	addi	s0,sp,256
     930:	0404                	addi	s1,sp,512
     932:	0c090003          	lb	zero,192(s2)
     936:	0100                	addi	s0,sp,128
     938:	2305                	jal	e58 <seg_show_tar_time+0x78>
     93a:	0200                	addi	s0,sp,256
     93c:	0504                	addi	s1,sp,640
     93e:	14090003          	lb	zero,320(s2)
     942:	0100                	addi	s0,sp,128
     944:	0505                	addi	a0,a0,1
     946:	0200                	addi	s0,sp,256
     948:	0804                	addi	s1,sp,16
     94a:	10090003          	lb	zero,256(s2)
     94e:	0100                	addi	s0,sp,128
     950:	0605                	addi	a2,a2,1
     952:	0200                	addi	s0,sp,256
     954:	0804                	addi	s1,sp,16
     956:	04090103          	lb	sp,64(s2)
     95a:	0100                	addi	s0,sp,128
     95c:	1005                	c.nop	-31
     95e:	0200                	addi	s0,sp,256
     960:	0104                	addi	s1,sp,128
     962:	0c090003          	lb	zero,192(s2)
     966:	0100                	addi	s0,sp,128
     968:	0605                	addi	a2,a2,1
     96a:	08090103          	lb	sp,128(s2)
     96e:	0100                	addi	s0,sp,128
     970:	0c090103          	lb	sp,192(s2)
     974:	0100                	addi	s0,sp,128
     976:	0505                	addi	a0,a0,1
     978:	0c090203          	lb	tp,192(s2)
     97c:	0100                	addi	s0,sp,128
     97e:	1105                	addi	sp,sp,-31
     980:	04090203          	lb	tp,64(s2)
     984:	0100                	addi	s0,sp,128
     986:	0605                	addi	a2,a2,1
     988:	14090003          	lb	zero,320(s2)
     98c:	0100                	addi	s0,sp,128
     98e:	1905                	addi	s2,s2,-31
     990:	04090003          	lb	zero,64(s2)
     994:	0100                	addi	s0,sp,128
     996:	0705                	addi	a4,a4,1
     998:	14090103          	lb	sp,320(s2)
     99c:	0100                	addi	s0,sp,128
     99e:	1105                	addi	sp,sp,-31
     9a0:	0200                	addi	s0,sp,256
     9a2:	0104                	addi	s1,sp,128
     9a4:	0c090003          	lb	zero,192(s2)
     9a8:	0100                	addi	s0,sp,128
     9aa:	0200                	addi	s0,sp,256
     9ac:	0204                	addi	s1,sp,256
     9ae:	0306                	slli	t1,t1,0x1
     9b0:	0900                	addi	s0,sp,144
     9b2:	000c                	0xc
     9b4:	0001                	nop
     9b6:	0402                	c.slli64	s0
     9b8:	09000303          	lb	t1,144(zero) # 90 <trap_entry+0x28>
     9bc:	0008                	0x8
     9be:	0001                	nop
     9c0:	0402                	c.slli64	s0
     9c2:	0305                	addi	t1,t1,1
     9c4:	0900                	addi	s0,sp,144
     9c6:	0004                	0x4
     9c8:	0501                	addi	a0,a0,0
     9ca:	01030607          	0x1030607
     9ce:	0c09                	addi	s8,s8,2
     9d0:	0100                	addi	s0,sp,128
     9d2:	0f05                	addi	t5,t5,1
     9d4:	0c090003          	lb	zero,192(s2)
     9d8:	0100                	addi	s0,sp,128
     9da:	0b05                	addi	s6,s6,1
     9dc:	0c090003          	lb	zero,192(s2)
     9e0:	0100                	addi	s0,sp,128
     9e2:	0305                	addi	t1,t1,1
     9e4:	0c090103          	lb	sp,192(s2)
     9e8:	0100                	addi	s0,sp,128
     9ea:	0e05                	addi	t3,t3,1
     9ec:	0200                	addi	s0,sp,256
     9ee:	0104                	addi	s1,sp,128
     9f0:	08090003          	lb	zero,128(s2)
     9f4:	0100                	addi	s0,sp,128
     9f6:	0905                	addi	s2,s2,1
     9f8:	0c090103          	lb	sp,192(s2)
     9fc:	0100                	addi	s0,sp,128
     9fe:	0605                	addi	a2,a2,1
     a00:	08090003          	lb	zero,128(s2)
     a04:	0100                	addi	s0,sp,128
     a06:	1105                	addi	sp,sp,-31
     a08:	0200                	addi	s0,sp,256
     a0a:	0104                	addi	s1,sp,128
     a0c:	04090003          	lb	zero,64(s2)
     a10:	0100                	addi	s0,sp,128
     a12:	1505                	addi	a0,a0,-31
     a14:	0200                	addi	s0,sp,256
     a16:	0104                	addi	s1,sp,128
     a18:	0c090003          	lb	zero,192(s2)
     a1c:	0100                	addi	s0,sp,128
     a1e:	0505                	addi	a0,a0,1
     a20:	10090103          	lb	sp,256(s2)
     a24:	0100                	addi	s0,sp,128
     a26:	1105                	addi	sp,sp,-31
     a28:	08090003          	lb	zero,128(s2)
     a2c:	0100                	addi	s0,sp,128
     a2e:	0c05                	addi	s8,s8,1
     a30:	08090003          	lb	zero,128(s2)
     a34:	0100                	addi	s0,sp,128
     a36:	0200                	addi	s0,sp,256
     a38:	0104                	addi	s1,sp,128
     a3a:	0306                	slli	t1,t1,0x1
     a3c:	0900                	addi	s0,sp,144
     a3e:	0004                	0x4
     a40:	0001                	nop
     a42:	0402                	c.slli64	s0
     a44:	0302                	c.slli64	t1
     a46:	0900                	addi	s0,sp,144
     a48:	0008                	0x8
     a4a:	0001                	nop
     a4c:	0402                	c.slli64	s0
     a4e:	0304                	addi	s1,sp,384
     a50:	0900                	addi	s0,sp,144
     a52:	0004                	0x4
     a54:	0501                	addi	a0,a0,0
     a56:	0009                	c.nop	2
     a58:	0402                	c.slli64	s0
     a5a:	0604                	addi	s1,sp,768
     a5c:	04090103          	lb	sp,64(s2)
     a60:	0100                	addi	s0,sp,128
     a62:	1f05                	addi	t5,t5,-31
     a64:	0200                	addi	s0,sp,256
     a66:	0304                	addi	s1,sp,384
     a68:	04090003          	lb	zero,64(s2)
     a6c:	0100                	addi	s0,sp,128
     a6e:	0e05                	addi	t3,t3,1
     a70:	0200                	addi	s0,sp,256
     a72:	0104                	addi	s1,sp,128
     a74:	0c090003          	lb	zero,192(s2)
     a78:	0100                	addi	s0,sp,128
     a7a:	0905                	addi	s2,s2,1
     a7c:	0200                	addi	s0,sp,256
     a7e:	0104                	addi	s1,sp,128
     a80:	08090003          	lb	zero,128(s2)
     a84:	0100                	addi	s0,sp,128
     a86:	1705                	addi	a4,a4,-31
     a88:	0200                	addi	s0,sp,256
     a8a:	0204                	addi	s1,sp,256
     a8c:	04090003          	lb	zero,64(s2)
     a90:	0100                	addi	s0,sp,128
     a92:	1305                	addi	t1,t1,-31
     a94:	0200                	addi	s0,sp,256
     a96:	0204                	addi	s1,sp,256
     a98:	0c090003          	lb	zero,192(s2)
     a9c:	0100                	addi	s0,sp,128
     a9e:	0605                	addi	a2,a2,1
     aa0:	0200                	addi	s0,sp,256
     aa2:	0104                	addi	s1,sp,128
     aa4:	08090103          	lb	sp,128(s2)
     aa8:	0100                	addi	s0,sp,128
     aaa:	0305                	addi	t1,t1,1
     aac:	0200                	addi	s0,sp,256
     aae:	0104                	addi	s1,sp,128
     ab0:	24090003          	lb	zero,576(s2)
     ab4:	0100                	addi	s0,sp,128
     ab6:	0905                	addi	s2,s2,1
     ab8:	08090103          	lb	sp,128(s2)
     abc:	0100                	addi	s0,sp,128
     abe:	1305                	addi	t1,t1,-31
     ac0:	0200                	addi	s0,sp,256
     ac2:	0204                	addi	s1,sp,256
     ac4:	04090003          	lb	zero,64(s2)
     ac8:	0100                	addi	s0,sp,128
     aca:	0b05                	addi	s6,s6,1
     acc:	0200                	addi	s0,sp,256
     ace:	0104                	addi	s1,sp,128
     ad0:	08090003          	lb	zero,128(s2)
     ad4:	0100                	addi	s0,sp,128
     ad6:	0905                	addi	s2,s2,1
     ad8:	0200                	addi	s0,sp,256
     ada:	0104                	addi	s1,sp,128
     adc:	0c090003          	lb	zero,192(s2)
     ae0:	0100                	addi	s0,sp,128
     ae2:	0505                	addi	a0,a0,1
     ae4:	08094303          	lbu	t1,128(s2)
     ae8:	0100                	addi	s0,sp,128
     aea:	0305                	addi	t1,t1,1
     aec:	04090103          	lb	sp,64(s2)
     af0:	0100                	addi	s0,sp,128
     af2:	08091203          	lh	tp,128(s2)
     af6:	0100                	addi	s0,sp,128
     af8:	0105                	addi	sp,sp,1
     afa:	0200                	addi	s0,sp,256
     afc:	0104                	addi	s1,sp,128
     afe:	04092c03          	lw	s8,64(s2)
     b02:	0100                	addi	s0,sp,128
     b04:	1409                	addi	s0,s0,-30
     b06:	0000                	unimp
     b08:	0101                	addi	sp,sp,0
     b0a:	0105                	addi	sp,sp,1
     b0c:	0500                	addi	s0,sp,640
     b0e:	e402                	fsw	ft0,8(sp)
     b10:	03000007          	0x3000007
     b14:	0195                	addi	gp,gp,5
     b16:	0501                	addi	a0,a0,0
     b18:	0302                	c.slli64	t1
     b1a:	0904                	addi	s1,sp,144
     b1c:	0030                	addi	a2,sp,8
     b1e:	0301                	addi	t1,t1,0
     b20:	0901                	addi	s2,s2,0
     b22:	000c                	0xc
     b24:	0501                	addi	a0,a0,0
     b26:	0301                	addi	t1,t1,0
     b28:	0902                	c.slli64	s2
     b2a:	0010                	0x10
     b2c:	0901                	addi	s2,s2,0
     b2e:	0014                	0x14
     b30:	0100                	addi	s0,sp,128
     b32:	e001                	bnez	s0,b32 <refresh_button_level+0x2a>
     b34:	0000                	unimp
     b36:	0300                	addi	s0,sp,384
     b38:	c400                	sw	s0,8(s0)
     b3a:	0000                	unimp
     b3c:	0100                	addi	s0,sp,128
     b3e:	fb01                	bnez	a4,a4e <set_sec_clock_init_time+0xa>
     b40:	0d0e                	slli	s10,s10,0x3
     b42:	0100                	addi	s0,sp,128
     b44:	0101                	addi	sp,sp,0
     b46:	0001                	nop
     b48:	0000                	unimp
     b4a:	0001                	nop
     b4c:	0100                	addi	s0,sp,128
     b4e:	00637273          	csrrci	tp,0x6,6
     b52:	3a64                	fld	fs1,240(a2)
     b54:	745c                	flw	fa5,44(s0)
     b56:	736c6f6f          	jal	t5,c728c <__stack_size+0xc528c>
     b5a:	725c                	flw	fa5,36(a2)
     b5c:	7369                	lui	t1,0xffffa
     b5e:	6e2d7663          	bgeu	s10,sp,124a <button_action+0x202>
     b62:	2d656e6f          	jal	t3,56e38 <__stack_size+0x54e38>
     b66:	2d636367          	0x2d636367
     b6a:	2e38                	fld	fa4,88(a2)
     b6c:	2e32                	fld	ft8,264(sp)
     b6e:	5c30                	lw	a2,120(s0)
     b70:	6972                	flw	fs2,28(sp)
     b72:	2d766373          	csrrsi	t1,0x2d7,12
     b76:	6f6e                	flw	ft10,216(sp)
     b78:	656e                	flw	fa0,216(sp)
     b7a:	652d                	lui	a0,0xb
     b7c:	626d                	lui	tp,0x1b
     b7e:	6465                	lui	s0,0x19
     b80:	695c                	flw	fa5,20(a0)
     b82:	636e                	flw	ft6,216(sp)
     b84:	756c                	flw	fa1,108(a0)
     b86:	6564                	flw	fs1,76(a0)
     b88:	6d5c                	flw	fa5,28(a0)
     b8a:	6361                	lui	t1,0x18
     b8c:	6968                	flw	fa0,84(a0)
     b8e:	656e                	flw	fa0,216(sp)
     b90:	6400                	flw	fs0,8(s0)
     b92:	5c3a                	lw	s8,172(sp)
     b94:	6f74                	flw	fa3,92(a4)
     b96:	5c736c6f          	jal	s8,3795c <__stack_size+0x3595c>
     b9a:	6972                	flw	fs2,28(sp)
     b9c:	2d766373          	csrrsi	t1,0x2d7,12
     ba0:	6f6e                	flw	ft10,216(sp)
     ba2:	656e                	flw	fa0,216(sp)
     ba4:	672d                	lui	a4,0xb
     ba6:	382d6363          	bltu	s10,sp,f2c <seg_show_alarm_time+0x18>
     baa:	322e                	fld	ft4,232(sp)
     bac:	302e                	fld	ft0,232(sp)
     bae:	725c                	flw	fa5,36(a2)
     bb0:	7369                	lui	t1,0xffffa
     bb2:	6e2d7663          	bgeu	s10,sp,129e <button_action+0x256>
     bb6:	2d656e6f          	jal	t3,56e8c <__stack_size+0x54e8c>
     bba:	6d65                	lui	s10,0x19
     bbc:	6562                	flw	fa0,24(sp)
     bbe:	5c64                	lw	s1,124(s0)
     bc0:	6e69                	lui	t3,0x1a
     bc2:	64756c63          	bltu	a0,t2,121a <button_action+0x1d2>
     bc6:	5c65                	li	s8,-7
     bc8:	00737973          	csrrci	s2,0x7,6
     bcc:	7400                	flw	fs0,40(s0)
     bce:	6172                	flw	ft2,28(sp)
     bd0:	5f70                	lw	a2,124(a4)
     bd2:	6168                	flw	fa0,68(a0)
     bd4:	646e                	flw	fs0,216(sp)
     bd6:	656c                	flw	fa1,76(a0)
     bd8:	2e72                	fld	ft8,280(sp)
     bda:	00010063          	beqz	sp,bda <digital_clock_init+0x46>
     bde:	5f00                	lw	s0,56(a4)
     be0:	6564                	flw	fs1,76(a0)
     be2:	6166                	flw	ft2,88(sp)
     be4:	6c75                	lui	s8,0x1d
     be6:	5f74                	lw	a3,124(a4)
     be8:	7974                	flw	fa3,116(a0)
     bea:	6570                	flw	fa2,76(a0)
     bec:	00682e73          	csrrs	t3,0x6,a6
     bf0:	0002                	c.slli64	zero
     bf2:	5f00                	lw	s0,56(a4)
     bf4:	69647473          	csrrci	s0,0x696,8
     bf8:	746e                	flw	fs0,248(sp)
     bfa:	682e                	flw	fa6,200(sp)
     bfc:	0300                	addi	s0,sp,384
     bfe:	0000                	unimp
     c00:	0500                	addi	s0,sp,640
     c02:	0001                	nop
     c04:	0205                	addi	tp,tp,1
     c06:	0844                	addi	s1,sp,20
     c08:	0000                	unimp
     c0a:	0316                	slli	t1,t1,0x5
     c0c:	0902                	c.slli64	s2
     c0e:	0014                	0x14
     c10:	0901                	addi	s2,s2,0
     c12:	0010                	0x10
     c14:	0100                	addi	s0,sp,128
     c16:	f401                	bnez	s0,b1e <refresh_button_level+0x16>
     c18:	0001                	nop
     c1a:	0300                	addi	s0,sp,384
     c1c:	c000                	sw	s0,0(s0)
     c1e:	0000                	unimp
     c20:	0100                	addi	s0,sp,128
     c22:	fb01                	bnez	a4,b32 <refresh_button_level+0x2a>
     c24:	0d0e                	slli	s10,s10,0x3
     c26:	0100                	addi	s0,sp,128
     c28:	0101                	addi	sp,sp,0
     c2a:	0001                	nop
     c2c:	0000                	unimp
     c2e:	0001                	nop
     c30:	0100                	addi	s0,sp,128
     c32:	00637273          	csrrci	tp,0x6,6
     c36:	3a64                	fld	fs1,240(a2)
     c38:	745c                	flw	fa5,44(s0)
     c3a:	736c6f6f          	jal	t5,c7370 <__stack_size+0xc5370>
     c3e:	725c                	flw	fa5,36(a2)
     c40:	7369                	lui	t1,0xffffa
     c42:	6e2d7663          	bgeu	s10,sp,132e <button_action+0x2e6>
     c46:	2d656e6f          	jal	t3,56f1c <__stack_size+0x54f1c>
     c4a:	2d636367          	0x2d636367
     c4e:	2e38                	fld	fa4,88(a2)
     c50:	2e32                	fld	ft8,264(sp)
     c52:	5c30                	lw	a2,120(s0)
     c54:	6972                	flw	fs2,28(sp)
     c56:	2d766373          	csrrsi	t1,0x2d7,12
     c5a:	6f6e                	flw	ft10,216(sp)
     c5c:	656e                	flw	fa0,216(sp)
     c5e:	652d                	lui	a0,0xb
     c60:	626d                	lui	tp,0x1b
     c62:	6465                	lui	s0,0x19
     c64:	695c                	flw	fa5,20(a0)
     c66:	636e                	flw	ft6,216(sp)
     c68:	756c                	flw	fa1,108(a0)
     c6a:	6564                	flw	fs1,76(a0)
     c6c:	6d5c                	flw	fa5,28(a0)
     c6e:	6361                	lui	t1,0x18
     c70:	6968                	flw	fa0,84(a0)
     c72:	656e                	flw	fa0,216(sp)
     c74:	6400                	flw	fs0,8(s0)
     c76:	5c3a                	lw	s8,172(sp)
     c78:	6f74                	flw	fa3,92(a4)
     c7a:	5c736c6f          	jal	s8,37a40 <__stack_size+0x35a40>
     c7e:	6972                	flw	fs2,28(sp)
     c80:	2d766373          	csrrsi	t1,0x2d7,12
     c84:	6f6e                	flw	ft10,216(sp)
     c86:	656e                	flw	fa0,216(sp)
     c88:	672d                	lui	a4,0xb
     c8a:	382d6363          	bltu	s10,sp,1010 <seg_show_alarm_time+0xfc>
     c8e:	322e                	fld	ft4,232(sp)
     c90:	302e                	fld	ft0,232(sp)
     c92:	725c                	flw	fa5,36(a2)
     c94:	7369                	lui	t1,0xffffa
     c96:	6e2d7663          	bgeu	s10,sp,1382 <button_action+0x33a>
     c9a:	2d656e6f          	jal	t3,56f70 <__stack_size+0x54f70>
     c9e:	6d65                	lui	s10,0x19
     ca0:	6562                	flw	fa0,24(sp)
     ca2:	5c64                	lw	s1,124(s0)
     ca4:	6e69                	lui	t3,0x1a
     ca6:	64756c63          	bltu	a0,t2,12fe <button_action+0x2b6>
     caa:	5c65                	li	s8,-7
     cac:	00737973          	csrrci	s2,0x7,6
     cb0:	7300                	flw	fs0,32(a4)
     cb2:	6765                	lui	a4,0x19
     cb4:	735f 6f68 2e77      	0x2e776f68735f
     cba:	00010063          	beqz	sp,cba <seg_show_cur_time+0xe>
     cbe:	5f00                	lw	s0,56(a4)
     cc0:	6564                	flw	fs1,76(a0)
     cc2:	6166                	flw	ft2,88(sp)
     cc4:	6c75                	lui	s8,0x1d
     cc6:	5f74                	lw	a3,124(a4)
     cc8:	7974                	flw	fa3,116(a0)
     cca:	6570                	flw	fa2,76(a0)
     ccc:	00682e73          	csrrs	t3,0x6,a6
     cd0:	0002                	c.slli64	zero
     cd2:	5f00                	lw	s0,56(a4)
     cd4:	69647473          	csrrci	s0,0x696,8
     cd8:	746e                	flw	fs0,248(sp)
     cda:	682e                	flw	fa6,200(sp)
     cdc:	0300                	addi	s0,sp,384
     cde:	0000                	unimp
     ce0:	0500                	addi	s0,sp,640
     ce2:	0021                	c.nop	8
     ce4:	0205                	addi	tp,tp,1
     ce6:	0868                	addi	a0,sp,28
     ce8:	0000                	unimp
     cea:	0514                	addi	a3,sp,640
     cec:	0305                	addi	t1,t1,1
     cee:	0901                	addi	s2,s2,0
     cf0:	0014                	0x14
     cf2:	0501                	addi	a0,a0,0
     cf4:	0325                	addi	t1,t1,9
     cf6:	0900                	addi	s0,sp,144
     cf8:	0008                	0x8
     cfa:	0501                	addi	a0,a0,0
     cfc:	0301                	addi	t1,t1,0
     cfe:	0901                	addi	s2,s2,0
     d00:	0008                	0x8
     d02:	0901                	addi	s2,s2,0
     d04:	0010                	0x10
     d06:	0100                	addi	s0,sp,128
     d08:	0501                	addi	a0,a0,0
     d0a:	0031                	c.nop	12
     d0c:	0205                	addi	tp,tp,1
     d0e:	089c                	addi	a5,sp,80
     d10:	0000                	unimp
     d12:	0518                	addi	a4,sp,640
     d14:	0318                	addi	a4,sp,384
     d16:	0901                	addi	s2,s2,0
     d18:	0020                	addi	s0,sp,8
     d1a:	0501                	addi	a0,a0,0
     d1c:	030e                	slli	t1,t1,0x3
     d1e:	0900                	addi	s0,sp,144
     d20:	0008                	0x8
     d22:	0301                	addi	t1,t1,0
     d24:	0901                	addi	s2,s2,0
     d26:	0008                	0x8
     d28:	0501                	addi	a0,a0,0
     d2a:	0901031b          	0x901031b
     d2e:	0008                	0x8
     d30:	0501                	addi	a0,a0,0
     d32:	0310                	addi	a2,sp,384
     d34:	0900                	addi	s0,sp,144
     d36:	0008                	0x8
     d38:	0301                	addi	t1,t1,0
     d3a:	0901                	addi	s2,s2,0
     d3c:	000c                	0xc
     d3e:	0301                	addi	t1,t1,0
     d40:	0901                	addi	s2,s2,0
     d42:	000c                	0xc
     d44:	0501                	addi	a0,a0,0
     d46:	09010323          	sb	a6,134(sp)
     d4a:	0010                	0x10
     d4c:	0501                	addi	a0,a0,0
     d4e:	0336                	slli	t1,t1,0xd
     d50:	0900                	addi	s0,sp,144
     d52:	0008                	0x8
     d54:	0501                	addi	a0,a0,0
     d56:	032c                	addi	a1,sp,392
     d58:	0900                	addi	s0,sp,144
     d5a:	0008                	0x8
     d5c:	0501                	addi	a0,a0,0
     d5e:	0310                	addi	a2,sp,384
     d60:	0900                	addi	s0,sp,144
     d62:	0004                	0x4
     d64:	0501                	addi	a0,a0,0
     d66:	0305                	addi	t1,t1,1
     d68:	0901                	addi	s2,s2,0
     d6a:	000c                	0xc
     d6c:	0501                	addi	a0,a0,0
     d6e:	0321                	addi	t1,t1,8
     d70:	0900                	addi	s0,sp,144
     d72:	0008                	0x8
     d74:	0501                	addi	a0,a0,0
     d76:	0301                	addi	t1,t1,0
     d78:	0901                	addi	s2,s2,0
     d7a:	0008                	0x8
     d7c:	0901                	addi	s2,s2,0
     d7e:	0010                	0x10
     d80:	0100                	addi	s0,sp,128
     d82:	0501                	addi	a0,a0,0
     d84:	0035                	c.nop	13
     d86:	0205                	addi	tp,tp,1
     d88:	0944                	addi	s1,sp,148
     d8a:	0000                	unimp
     d8c:	05011003          	lh	zero,80(sp)
     d90:	0318                	addi	a4,sp,384
     d92:	0901                	addi	s2,s2,0
     d94:	0020                	addi	s0,sp,8
     d96:	0501                	addi	a0,a0,0
     d98:	030e                	slli	t1,t1,0x3
     d9a:	0900                	addi	s0,sp,144
     d9c:	0008                	0x8
     d9e:	0301                	addi	t1,t1,0
     da0:	0901                	addi	s2,s2,0
     da2:	0008                	0x8
     da4:	0501                	addi	a0,a0,0
     da6:	0901031b          	0x901031b
     daa:	0008                	0x8
     dac:	0501                	addi	a0,a0,0
     dae:	0310                	addi	a2,sp,384
     db0:	0900                	addi	s0,sp,144
     db2:	0008                	0x8
     db4:	0301                	addi	t1,t1,0
     db6:	0901                	addi	s2,s2,0
     db8:	000c                	0xc
     dba:	0301                	addi	t1,t1,0
     dbc:	0901                	addi	s2,s2,0
     dbe:	000c                	0xc
     dc0:	0501                	addi	a0,a0,0
     dc2:	0316                	slli	t1,t1,0x5
     dc4:	0901                	addi	s2,s2,0
     dc6:	0010                	0x10
     dc8:	0501                	addi	a0,a0,0
     dca:	0326                	slli	t1,t1,0x9
     dcc:	0900                	addi	s0,sp,144
     dce:	0004                	0x4
     dd0:	0501                	addi	a0,a0,0
     dd2:	032c                	addi	a1,sp,392
     dd4:	0900                	addi	s0,sp,144
     dd6:	0004                	0x4
     dd8:	0501                	addi	a0,a0,0
     dda:	033e                	slli	t1,t1,0xf
     ddc:	0900                	addi	s0,sp,144
     dde:	0004                	0x4
     de0:	0501                	addi	a0,a0,0
     de2:	0334                	addi	a3,sp,392
     de4:	0900                	addi	s0,sp,144
     de6:	0008                	0x8
     de8:	0501                	addi	a0,a0,0
     dea:	0310                	addi	a2,sp,384
     dec:	0900                	addi	s0,sp,144
     dee:	0004                	0x4
     df0:	0501                	addi	a0,a0,0
     df2:	0305                	addi	t1,t1,1
     df4:	0901                	addi	s2,s2,0
     df6:	000c                	0xc
     df8:	0501                	addi	a0,a0,0
     dfa:	0321                	addi	t1,t1,8
     dfc:	0900                	addi	s0,sp,144
     dfe:	0008                	0x8
     e00:	0501                	addi	a0,a0,0
     e02:	0301                	addi	t1,t1,0
     e04:	0901                	addi	s2,s2,0
     e06:	0008                	0x8
     e08:	0901                	addi	s2,s2,0
     e0a:	0010                	0x10
     e0c:	0100                	addi	s0,sp,128
     e0e:	a501                	j	140e <timestamp_to_time+0x7a>
     e10:	0001                	nop
     e12:	0300                	addi	s0,sp,384
     e14:	c100                	sw	s0,0(a0)
     e16:	0000                	unimp
     e18:	0100                	addi	s0,sp,128
     e1a:	fb01                	bnez	a4,d2a <seg_show_cur_time+0x7e>
     e1c:	0d0e                	slli	s10,s10,0x3
     e1e:	0100                	addi	s0,sp,128
     e20:	0101                	addi	sp,sp,0
     e22:	0001                	nop
     e24:	0000                	unimp
     e26:	0001                	nop
     e28:	0100                	addi	s0,sp,128
     e2a:	00637273          	csrrci	tp,0x6,6
     e2e:	3a64                	fld	fs1,240(a2)
     e30:	745c                	flw	fa5,44(s0)
     e32:	736c6f6f          	jal	t5,c7568 <__stack_size+0xc5568>
     e36:	725c                	flw	fa5,36(a2)
     e38:	7369                	lui	t1,0xffffa
     e3a:	6e2d7663          	bgeu	s10,sp,1526 <__modsi3+0x1e>
     e3e:	2d656e6f          	jal	t3,57114 <__stack_size+0x55114>
     e42:	2d636367          	0x2d636367
     e46:	2e38                	fld	fa4,88(a2)
     e48:	2e32                	fld	ft8,264(sp)
     e4a:	5c30                	lw	a2,120(s0)
     e4c:	6972                	flw	fs2,28(sp)
     e4e:	2d766373          	csrrsi	t1,0x2d7,12
     e52:	6f6e                	flw	ft10,216(sp)
     e54:	656e                	flw	fa0,216(sp)
     e56:	652d                	lui	a0,0xb
     e58:	626d                	lui	tp,0x1b
     e5a:	6465                	lui	s0,0x19
     e5c:	695c                	flw	fa5,20(a0)
     e5e:	636e                	flw	ft6,216(sp)
     e60:	756c                	flw	fa1,108(a0)
     e62:	6564                	flw	fs1,76(a0)
     e64:	6d5c                	flw	fa5,28(a0)
     e66:	6361                	lui	t1,0x18
     e68:	6968                	flw	fa0,84(a0)
     e6a:	656e                	flw	fa0,216(sp)
     e6c:	6400                	flw	fs0,8(s0)
     e6e:	5c3a                	lw	s8,172(sp)
     e70:	6f74                	flw	fa3,92(a4)
     e72:	5c736c6f          	jal	s8,37c38 <__stack_size+0x35c38>
     e76:	6972                	flw	fs2,28(sp)
     e78:	2d766373          	csrrsi	t1,0x2d7,12
     e7c:	6f6e                	flw	ft10,216(sp)
     e7e:	656e                	flw	fa0,216(sp)
     e80:	672d                	lui	a4,0xb
     e82:	382d6363          	bltu	s10,sp,1208 <button_action+0x1c0>
     e86:	322e                	fld	ft4,232(sp)
     e88:	302e                	fld	ft0,232(sp)
     e8a:	725c                	flw	fa5,36(a2)
     e8c:	7369                	lui	t1,0xffffa
     e8e:	6e2d7663          	bgeu	s10,sp,157a <_data_lma+0x42>
     e92:	2d656e6f          	jal	t3,57168 <__stack_size+0x55168>
     e96:	6d65                	lui	s10,0x19
     e98:	6562                	flw	fa0,24(sp)
     e9a:	5c64                	lw	s1,124(s0)
     e9c:	6e69                	lui	t3,0x1a
     e9e:	64756c63          	bltu	a0,t2,14f6 <__umodsi3+0x22>
     ea2:	5c65                	li	s8,-7
     ea4:	00737973          	csrrci	s2,0x7,6
     ea8:	7300                	flw	fs0,32(a4)
     eaa:	6365                	lui	t1,0x19
     eac:	635f 6f6c 6b63      	0x6b636f6c635f
     eb2:	632e                	flw	ft6,200(sp)
     eb4:	0100                	addi	s0,sp,128
     eb6:	0000                	unimp
     eb8:	645f 6665 7561      	0x75616665645f
     ebe:	746c                	flw	fa1,108(s0)
     ec0:	745f 7079 7365      	0x73657079745f
     ec6:	682e                	flw	fa6,200(sp)
     ec8:	0200                	addi	s0,sp,256
     eca:	0000                	unimp
     ecc:	735f 6474 6e69      	0x6e696474735f
     ed2:	2e74                	fld	fa3,216(a2)
     ed4:	0068                	addi	a0,sp,12
     ed6:	00000003          	lb	zero,0(zero) # 0 <_start>
     eda:	2205                	jal	ffa <seg_show_alarm_time+0xe6>
     edc:	0500                	addi	s0,sp,640
     ede:	f002                	fsw	ft0,32(sp)
     ee0:	0009                	c.nop	2
     ee2:	1400                	addi	s0,sp,544
     ee4:	0c05                	addi	s8,s8,1
     ee6:	0c090103          	lb	sp,192(s2)
     eea:	0100                	addi	s0,sp,128
     eec:	0105                	addi	sp,sp,1
     eee:	0c090103          	lb	sp,192(s2)
     ef2:	0100                	addi	s0,sp,128
     ef4:	1009                	c.nop	-30
     ef6:	0000                	unimp
     ef8:	0101                	addi	sp,sp,0
     efa:	1505                	addi	a0,a0,-31
     efc:	0500                	addi	s0,sp,640
     efe:	1802                	slli	a6,a6,0x20
     f00:	000a                	c.slli	zero,0x2
     f02:	1800                	addi	s0,sp,48
     f04:	0505                	addi	a0,a0,1
     f06:	0c090103          	lb	sp,192(s2)
     f0a:	0100                	addi	s0,sp,128
     f0c:	2705                	jal	162c <_data_lma+0xf4>
     f0e:	08090003          	lb	zero,128(s2)
     f12:	0100                	addi	s0,sp,128
     f14:	0105                	addi	sp,sp,1
     f16:	08090103          	lb	sp,128(s2)
     f1a:	0100                	addi	s0,sp,128
     f1c:	1009                	c.nop	-30
     f1e:	0000                	unimp
     f20:	0101                	addi	sp,sp,0
     f22:	3105                	jal	b42 <refresh_button_level+0x3a>
     f24:	0500                	addi	s0,sp,640
     f26:	4402                	lw	s0,0(sp)
     f28:	000a                	c.slli	zero,0x2
     f2a:	0300                	addi	s0,sp,384
     f2c:	010a                	slli	sp,sp,0x2
     f2e:	0505                	addi	a0,a0,1
     f30:	14090103          	lb	sp,320(s2)
     f34:	0100                	addi	s0,sp,128
     f36:	2d05                	jal	1566 <_data_lma+0x2e>
     f38:	08090003          	lb	zero,128(s2)
     f3c:	0100                	addi	s0,sp,128
     f3e:	0505                	addi	a0,a0,1
     f40:	08090103          	lb	sp,128(s2)
     f44:	0100                	addi	s0,sp,128
     f46:	0105                	addi	sp,sp,1
     f48:	04090103          	lb	sp,64(s2)
     f4c:	0100                	addi	s0,sp,128
     f4e:	1409                	addi	s0,s0,-30
     f50:	0000                	unimp
     f52:	0101                	addi	sp,sp,0
     f54:	2305                	jal	1474 <timestamp_to_time+0xe0>
     f56:	0500                	addi	s0,sp,640
     f58:	8002                	0x8002
     f5a:	000a                	c.slli	zero,0x2
     f5c:	0300                	addi	s0,sp,384
     f5e:	0c05010f          	0xc05010f
     f62:	0c090103          	lb	sp,192(s2)
     f66:	0100                	addi	s0,sp,128
     f68:	0105                	addi	sp,sp,1
     f6a:	0c090103          	lb	sp,192(s2)
     f6e:	0100                	addi	s0,sp,128
     f70:	1009                	c.nop	-30
     f72:	0000                	unimp
     f74:	0101                	addi	sp,sp,0
     f76:	2205                	jal	1096 <button_action+0x4e>
     f78:	0500                	addi	s0,sp,640
     f7a:	a802                	fsd	ft0,16(sp)
     f7c:	000a                	c.slli	zero,0x2
     f7e:	0300                	addi	s0,sp,384
     f80:	0d050113          	addi	sp,a0,208 # b0d0 <__stack_size+0x90d0>
     f84:	14090103          	lb	sp,320(s2)
     f88:	0100                	addi	s0,sp,128
     f8a:	2905                	jal	13ba <timestamp_to_time+0x26>
     f8c:	08090003          	lb	zero,128(s2)
     f90:	0100                	addi	s0,sp,128
     f92:	2705                	jal	16b2 <_data_lma+0x17a>
     f94:	08090003          	lb	zero,128(s2)
     f98:	0100                	addi	s0,sp,128
     f9a:	4205                	li	tp,1
     f9c:	04090003          	lb	zero,64(s2)
     fa0:	0100                	addi	s0,sp,128
     fa2:	5005                	c.li	zero,-31
     fa4:	0c090003          	lb	zero,192(s2)
     fa8:	0100                	addi	s0,sp,128
     faa:	0105                	addi	sp,sp,1
     fac:	14090103          	lb	sp,320(s2)
     fb0:	0100                	addi	s0,sp,128
     fb2:	1809                	addi	a6,a6,-30
     fb4:	0000                	unimp
     fb6:	0101                	addi	sp,sp,0
     fb8:	011e                	slli	sp,sp,0x7
     fba:	0000                	unimp
     fbc:	00be0003          	lb	zero,11(t3) # 1a00b <__stack_size+0x1800b>
     fc0:	0000                	unimp
     fc2:	0101                	addi	sp,sp,0
     fc4:	000d0efb          	0xd0efb
     fc8:	0101                	addi	sp,sp,0
     fca:	0101                	addi	sp,sp,0
     fcc:	0000                	unimp
     fce:	0100                	addi	s0,sp,128
     fd0:	0000                	unimp
     fd2:	7301                	lui	t1,0xfffe0
     fd4:	6372                	flw	ft6,28(sp)
     fd6:	6400                	flw	fs0,8(s0)
     fd8:	5c3a                	lw	s8,172(sp)
     fda:	6f74                	flw	fa3,92(a4)
     fdc:	5c736c6f          	jal	s8,37da2 <__stack_size+0x35da2>
     fe0:	6972                	flw	fs2,28(sp)
     fe2:	2d766373          	csrrsi	t1,0x2d7,12
     fe6:	6f6e                	flw	ft10,216(sp)
     fe8:	656e                	flw	fa0,216(sp)
     fea:	672d                	lui	a4,0xb
     fec:	382d6363          	bltu	s10,sp,1372 <button_action+0x32a>
     ff0:	322e                	fld	ft4,232(sp)
     ff2:	302e                	fld	ft0,232(sp)
     ff4:	725c                	flw	fa5,36(a2)
     ff6:	7369                	lui	t1,0xffffa
     ff8:	6e2d7663          	bgeu	s10,sp,16e4 <_data_lma+0x1ac>
     ffc:	2d656e6f          	jal	t3,572d2 <__stack_size+0x552d2>
    1000:	6d65                	lui	s10,0x19
    1002:	6562                	flw	fa0,24(sp)
    1004:	5c64                	lw	s1,124(s0)
    1006:	6e69                	lui	t3,0x1a
    1008:	64756c63          	bltu	a0,t2,1660 <_data_lma+0x128>
    100c:	5c65                	li	s8,-7
    100e:	616d                	addi	sp,sp,240
    1010:	6e696863          	bltu	s2,t1,1700 <_data_lma+0x1c8>
    1014:	0065                	c.nop	25
    1016:	3a64                	fld	fs1,240(a2)
    1018:	745c                	flw	fa5,44(s0)
    101a:	736c6f6f          	jal	t5,c7750 <__stack_size+0xc5750>
    101e:	725c                	flw	fa5,36(a2)
    1020:	7369                	lui	t1,0xffffa
    1022:	6e2d7663          	bgeu	s10,sp,170e <_data_lma+0x1d6>
    1026:	2d656e6f          	jal	t3,572fc <__stack_size+0x552fc>
    102a:	2d636367          	0x2d636367
    102e:	2e38                	fld	fa4,88(a2)
    1030:	2e32                	fld	ft8,264(sp)
    1032:	5c30                	lw	a2,120(s0)
    1034:	6972                	flw	fs2,28(sp)
    1036:	2d766373          	csrrsi	t1,0x2d7,12
    103a:	6f6e                	flw	ft10,216(sp)
    103c:	656e                	flw	fa0,216(sp)
    103e:	652d                	lui	a0,0xb
    1040:	626d                	lui	tp,0x1b
    1042:	6465                	lui	s0,0x19
    1044:	695c                	flw	fa5,20(a0)
    1046:	636e                	flw	ft6,216(sp)
    1048:	756c                	flw	fa1,108(a0)
    104a:	6564                	flw	fs1,76(a0)
    104c:	735c                	flw	fa5,36(a4)
    104e:	7379                	lui	t1,0xffffe
    1050:	0000                	unimp
    1052:	7562                	flw	fa0,56(sp)
    1054:	7474                	flw	fa3,108(s0)
    1056:	632e6e6f          	jal	t3,e7688 <__stack_size+0xe5688>
    105a:	0100                	addi	s0,sp,128
    105c:	0000                	unimp
    105e:	645f 6665 7561      	0x75616665645f
    1064:	746c                	flw	fa1,108(s0)
    1066:	745f 7079 7365      	0x73657079745f
    106c:	682e                	flw	fa6,200(sp)
    106e:	0200                	addi	s0,sp,256
    1070:	0000                	unimp
    1072:	735f 6474 6e69      	0x6e696474735f
    1078:	2e74                	fld	fa3,216(a2)
    107a:	0068                	addi	a0,sp,12
    107c:	00000003          	lb	zero,0(zero) # 0 <_start>
    1080:	1c05                	addi	s8,s8,-31
    1082:	0500                	addi	s0,sp,640
    1084:	0802                	c.slli64	a6
    1086:	1700000b          	0x1700000b
    108a:	1605                	addi	a2,a2,-31
    108c:	0c090103          	lb	sp,192(s2)
    1090:	0100                	addi	s0,sp,128
    1092:	1805                	addi	a6,a6,-31
    1094:	10090103          	lb	sp,256(s2)
    1098:	0100                	addi	s0,sp,128
    109a:	1605                	addi	a2,a2,-31
    109c:	0c090003          	lb	zero,192(s2)
    10a0:	0100                	addi	s0,sp,128
    10a2:	0105                	addi	sp,sp,1
    10a4:	0c090103          	lb	sp,192(s2)
    10a8:	0100                	addi	s0,sp,128
    10aa:	1009                	c.nop	-30
    10ac:	0000                	unimp
    10ae:	0101                	addi	sp,sp,0
    10b0:	1905                	addi	s2,s2,-31
    10b2:	0500                	addi	s0,sp,640
    10b4:	4c02                	lw	s8,0(sp)
    10b6:	0300000b          	0x300000b
    10ba:	010a                	slli	sp,sp,0x2
    10bc:	0505                	addi	a0,a0,1
    10be:	10090103          	lb	sp,256(s2)
    10c2:	0100                	addi	s0,sp,128
    10c4:	3205                	jal	9e4 <set_scan_seg_state+0xa0>
    10c6:	04090103          	lb	sp,64(s2)
    10ca:	0100                	addi	s0,sp,128
    10cc:	0105                	addi	sp,sp,1
    10ce:	20090103          	lb	sp,512(s2)
    10d2:	0100                	addi	s0,sp,128
    10d4:	1409                	addi	s0,s0,-30
    10d6:	0000                	unimp
    10d8:	0101                	addi	sp,sp,0
    10da:	06e1                	addi	a3,a3,24
    10dc:	0000                	unimp
    10de:	010c0003          	lb	zero,16(s8) # 1d010 <__stack_size+0x1b010>
    10e2:	0000                	unimp
    10e4:	0101                	addi	sp,sp,0
    10e6:	000d0efb          	0xd0efb
    10ea:	0101                	addi	sp,sp,0
    10ec:	0101                	addi	sp,sp,0
    10ee:	0000                	unimp
    10f0:	0100                	addi	s0,sp,128
    10f2:	0000                	unimp
    10f4:	7301                	lui	t1,0xfffe0
    10f6:	6372                	flw	ft6,28(sp)
    10f8:	6400                	flw	fs0,8(s0)
    10fa:	5c3a                	lw	s8,172(sp)
    10fc:	6f74                	flw	fa3,92(a4)
    10fe:	5c736c6f          	jal	s8,37ec4 <__stack_size+0x35ec4>
    1102:	6972                	flw	fs2,28(sp)
    1104:	2d766373          	csrrsi	t1,0x2d7,12
    1108:	6f6e                	flw	ft10,216(sp)
    110a:	656e                	flw	fa0,216(sp)
    110c:	672d                	lui	a4,0xb
    110e:	382d6363          	bltu	s10,sp,1494 <__udivsi3+0x8>
    1112:	322e                	fld	ft4,232(sp)
    1114:	302e                	fld	ft0,232(sp)
    1116:	725c                	flw	fa5,36(a2)
    1118:	7369                	lui	t1,0xffffa
    111a:	6e2d7663          	bgeu	s10,sp,1806 <_data_lma+0x2ce>
    111e:	2d656e6f          	jal	t3,573f4 <__stack_size+0x553f4>
    1122:	6d65                	lui	s10,0x19
    1124:	6562                	flw	fa0,24(sp)
    1126:	5c64                	lw	s1,124(s0)
    1128:	6e69                	lui	t3,0x1a
    112a:	64756c63          	bltu	a0,t2,1782 <_data_lma+0x24a>
    112e:	5c65                	li	s8,-7
    1130:	616d                	addi	sp,sp,240
    1132:	6e696863          	bltu	s2,t1,1822 <_data_lma+0x2ea>
    1136:	0065                	c.nop	25
    1138:	3a64                	fld	fs1,240(a2)
    113a:	745c                	flw	fa5,44(s0)
    113c:	736c6f6f          	jal	t5,c7872 <__stack_size+0xc5872>
    1140:	725c                	flw	fa5,36(a2)
    1142:	7369                	lui	t1,0xffffa
    1144:	6e2d7663          	bgeu	s10,sp,1830 <_data_lma+0x2f8>
    1148:	2d656e6f          	jal	t3,5741e <__stack_size+0x5541e>
    114c:	2d636367          	0x2d636367
    1150:	2e38                	fld	fa4,88(a2)
    1152:	2e32                	fld	ft8,264(sp)
    1154:	5c30                	lw	a2,120(s0)
    1156:	6972                	flw	fs2,28(sp)
    1158:	2d766373          	csrrsi	t1,0x2d7,12
    115c:	6f6e                	flw	ft10,216(sp)
    115e:	656e                	flw	fa0,216(sp)
    1160:	652d                	lui	a0,0xb
    1162:	626d                	lui	tp,0x1b
    1164:	6465                	lui	s0,0x19
    1166:	695c                	flw	fa5,20(a0)
    1168:	636e                	flw	ft6,216(sp)
    116a:	756c                	flw	fa1,108(a0)
    116c:	6564                	flw	fs1,76(a0)
    116e:	735c                	flw	fa5,36(a4)
    1170:	7379                	lui	t1,0xffffe
    1172:	7300                	flw	fs0,32(a4)
    1174:	6372                	flw	ft6,28(sp)
    1176:	2f2e2e2f          	0x2f2e2e2f
    117a:	6e69                	lui	t3,0x1a
    117c:	64756c63          	bltu	a0,t2,17d4 <_data_lma+0x29c>
    1180:	0065                	c.nop	25
    1182:	2f637273          	csrrci	tp,0x2f6,6
    1186:	2e2e                	fld	ft8,200(sp)
    1188:	636e692f          	0x636e692f
    118c:	756c                	flw	fa1,108(a0)
    118e:	6564                	flw	fs1,76(a0)
    1190:	2f2e2e2f          	0x2f2e2e2f
    1194:	6e69                	lui	t3,0x1a
    1196:	64756c63          	bltu	a0,t2,17ee <_data_lma+0x2b6>
    119a:	0065                	c.nop	25
    119c:	7000                	flw	fs0,32(s0)
    119e:	6f72                	flw	ft10,28(sp)
    11a0:	73736563          	bltu	t1,s7,18ca <_data_lma+0x392>
    11a4:	665f 6e75 2e63      	0x2e636e75665f
    11aa:	00010063          	beqz	sp,11aa <button_action+0x162>
    11ae:	5f00                	lw	s0,56(a4)
    11b0:	6564                	flw	fs1,76(a0)
    11b2:	6166                	flw	ft2,88(sp)
    11b4:	6c75                	lui	s8,0x1d
    11b6:	5f74                	lw	a3,124(a4)
    11b8:	7974                	flw	fa3,116(a0)
    11ba:	6570                	flw	fa2,76(a0)
    11bc:	00682e73          	csrrs	t3,0x6,a6
    11c0:	0002                	c.slli64	zero
    11c2:	5f00                	lw	s0,56(a4)
    11c4:	69647473          	csrrci	s0,0x696,8
    11c8:	746e                	flw	fs0,248(sp)
    11ca:	682e                	flw	fa6,200(sp)
    11cc:	0300                	addi	s0,sp,384
    11ce:	0000                	unimp
    11d0:	7270                	flw	fa2,100(a2)
    11d2:	7365636f          	jal	t1,57908 <__stack_size+0x55908>
    11d6:	75665f73          	csrrwi	t5,0x756,12
    11da:	636e                	flw	ft6,216(sp)
    11dc:	682e                	flw	fa6,200(sp)
    11de:	0400                	addi	s0,sp,512
    11e0:	0000                	unimp
    11e2:	7078                	flw	fa4,100(s0)
    11e4:	6972                	flw	fs2,28(sp)
    11e6:	746e                	flw	fs0,248(sp)
    11e8:	2e66                	fld	ft8,88(sp)
    11ea:	0068                	addi	a0,sp,12
    11ec:	0005                	c.nop	1
    11ee:	0000                	unimp
    11f0:	1a05                	addi	s4,s4,-31
    11f2:	0500                	addi	s0,sp,640
    11f4:	9402                	jalr	s0
    11f6:	0300000b          	0x300000b
    11fa:	010c                	addi	a1,sp,128
    11fc:	0505                	addi	a0,a0,1
    11fe:	10090203          	lb	tp,256(s2)
    1202:	0100                	addi	s0,sp,128
    1204:	0d05                	addi	s10,s10,1
    1206:	04090303          	lb	t1,64(s2)
    120a:	0100                	addi	s0,sp,128
    120c:	0505                	addi	a0,a0,1
    120e:	04090003          	lb	zero,64(s2)
    1212:	0100                	addi	s0,sp,128
    1214:	0905                	addi	s2,s2,1
    1216:	0200                	addi	s0,sp,256
    1218:	0304                	addi	s1,sp,384
    121a:	04090103          	lb	sp,64(s2)
    121e:	0100                	addi	s0,sp,128
    1220:	0200                	addi	s0,sp,256
    1222:	0304                	addi	s1,sp,384
    1224:	14090103          	lb	sp,320(s2)
    1228:	0100                	addi	s0,sp,128
    122a:	1905                	addi	s2,s2,-31
    122c:	0200                	addi	s0,sp,256
    122e:	0304                	addi	s1,sp,384
    1230:	14097e03          	0x14097e03
    1234:	0100                	addi	s0,sp,128
    1236:	0505                	addi	a0,a0,1
    1238:	0200                	addi	s0,sp,256
    123a:	0104                	addi	s1,sp,128
    123c:	0c090003          	lb	zero,192(s2)
    1240:	0100                	addi	s0,sp,128
    1242:	0c090403          	lb	s0,192(s2)
    1246:	0100                	addi	s0,sp,128
    1248:	0c090103          	lb	sp,192(s2)
    124c:	0100                	addi	s0,sp,128
    124e:	08090303          	lb	t1,128(s2)
    1252:	0100                	addi	s0,sp,128
    1254:	1205                	addi	tp,tp,-31
    1256:	08090303          	lb	t1,128(s2)
    125a:	0100                	addi	s0,sp,128
    125c:	1305                	addi	t1,t1,-31
    125e:	04090103          	lb	sp,64(s2)
    1262:	0100                	addi	s0,sp,128
    1264:	0105                	addi	sp,sp,1
    1266:	04090103          	lb	sp,64(s2)
    126a:	0100                	addi	s0,sp,128
    126c:	1409                	addi	s0,s0,-30
    126e:	0000                	unimp
    1270:	0101                	addi	sp,sp,0
    1272:	1405                	addi	s0,s0,-31
    1274:	0500                	addi	s0,sp,640
    1276:	2802                	fld	fa6,0(sp)
    1278:	000c                	0xc
    127a:	0300                	addi	s0,sp,384
    127c:	0120                	addi	s0,sp,136
    127e:	1505                	addi	a0,a0,-31
    1280:	10090103          	lb	sp,256(s2)
    1284:	0100                	addi	s0,sp,128
    1286:	1305                	addi	t1,t1,-31
    1288:	08090003          	lb	zero,128(s2)
    128c:	0100                	addi	s0,sp,128
    128e:	0105                	addi	sp,sp,1
    1290:	04090103          	lb	sp,64(s2)
    1294:	0100                	addi	s0,sp,128
    1296:	1409                	addi	s0,s0,-30
    1298:	0000                	unimp
    129a:	0101                	addi	sp,sp,0
    129c:	1305                	addi	t1,t1,-31
    129e:	0500                	addi	s0,sp,640
    12a0:	5802                	lw	a6,32(sp)
    12a2:	000c                	0xc
    12a4:	0300                	addi	s0,sp,384
    12a6:	0124                	addi	s1,sp,136
    12a8:	0805                	addi	a6,a6,1
    12aa:	10090103          	lb	sp,256(s2)
    12ae:	0100                	addi	s0,sp,128
    12b0:	0705                	addi	a4,a4,1
    12b2:	04090003          	lb	zero,64(s2)
    12b6:	0100                	addi	s0,sp,128
    12b8:	2905                	jal	16e8 <_data_lma+0x1b0>
    12ba:	0200                	addi	s0,sp,256
    12bc:	0104                	addi	s1,sp,128
    12be:	04090003          	lb	zero,64(s2)
    12c2:	0100                	addi	s0,sp,128
    12c4:	1505                	addi	a0,a0,-31
    12c6:	0200                	addi	s0,sp,256
    12c8:	0104                	addi	s1,sp,128
    12ca:	08090003          	lb	zero,128(s2)
    12ce:	0100                	addi	s0,sp,128
    12d0:	1705                	addi	a4,a4,-31
    12d2:	04090103          	lb	sp,64(s2)
    12d6:	0100                	addi	s0,sp,128
    12d8:	0805                	addi	a6,a6,1
    12da:	08090203          	lb	tp,128(s2)
    12de:	0100                	addi	s0,sp,128
    12e0:	0705                	addi	a4,a4,1
    12e2:	04090003          	lb	zero,64(s2)
    12e6:	0100                	addi	s0,sp,128
    12e8:	0905                	addi	s2,s2,1
    12ea:	04090103          	lb	sp,64(s2)
    12ee:	0100                	addi	s0,sp,128
    12f0:	0105                	addi	sp,sp,1
    12f2:	0c090203          	lb	tp,192(s2)
    12f6:	0100                	addi	s0,sp,128
    12f8:	1409                	addi	s0,s0,-30
    12fa:	0000                	unimp
    12fc:	0101                	addi	sp,sp,0
    12fe:	1905                	addi	s2,s2,-31
    1300:	0500                	addi	s0,sp,640
    1302:	ac02                	fsd	ft0,24(sp)
    1304:	000c                	0xc
    1306:	0300                	addi	s0,sp,384
    1308:	012d                	addi	sp,sp,11
    130a:	1d05                	addi	s10,s10,-31
    130c:	14090103          	lb	sp,320(s2)
    1310:	0100                	addi	s0,sp,128
    1312:	2105                	jal	1732 <_data_lma+0x1fa>
    1314:	2c090203          	lb	tp,704(s2)
    1318:	0100                	addi	s0,sp,128
    131a:	0505                	addi	a0,a0,1
    131c:	04090003          	lb	zero,64(s2)
    1320:	0100                	addi	s0,sp,128
    1322:	2105                	jal	1742 <_data_lma+0x20a>
    1324:	20090103          	lb	sp,512(s2)
    1328:	0100                	addi	s0,sp,128
    132a:	0505                	addi	a0,a0,1
    132c:	04090003          	lb	zero,64(s2)
    1330:	0100                	addi	s0,sp,128
    1332:	2105                	jal	1752 <_data_lma+0x21a>
    1334:	20090103          	lb	sp,512(s2)
    1338:	0100                	addi	s0,sp,128
    133a:	0505                	addi	a0,a0,1
    133c:	04090003          	lb	zero,64(s2)
    1340:	0100                	addi	s0,sp,128
    1342:	2105                	jal	1762 <_data_lma+0x22a>
    1344:	20090103          	lb	sp,512(s2)
    1348:	0100                	addi	s0,sp,128
    134a:	0505                	addi	a0,a0,1
    134c:	04090003          	lb	zero,64(s2)
    1350:	0100                	addi	s0,sp,128
    1352:	2505                	jal	1972 <_data_lma+0x43a>
    1354:	20090203          	lb	tp,512(s2)
    1358:	0100                	addi	s0,sp,128
    135a:	3005                	jal	b7a <detect_falling+0x2e>
    135c:	04090003          	lb	zero,64(s2)
    1360:	0100                	addi	s0,sp,128
    1362:	3d05                	jal	1192 <button_action+0x14a>
    1364:	14090003          	lb	zero,320(s2)
    1368:	0100                	addi	s0,sp,128
    136a:	3005                	jal	b8a <detect_falling+0x3e>
    136c:	04090003          	lb	zero,64(s2)
    1370:	0100                	addi	s0,sp,128
    1372:	0d05                	addi	s10,s10,1
    1374:	1c090003          	lb	zero,448(s2)
    1378:	0100                	addi	s0,sp,128
    137a:	0505                	addi	a0,a0,1
    137c:	08090103          	lb	sp,128(s2)
    1380:	0100                	addi	s0,sp,128
    1382:	0105                	addi	sp,sp,1
    1384:	0c090103          	lb	sp,192(s2)
    1388:	0100                	addi	s0,sp,128
    138a:	1809                	addi	a6,a6,-30
    138c:	0000                	unimp
    138e:	0101                	addi	sp,sp,0
    1390:	1905                	addi	s2,s2,-31
    1392:	0500                	addi	s0,sp,640
    1394:	e002                	fsw	ft0,0(sp)
    1396:	000d                	c.nop	3
    1398:	0300                	addi	s0,sp,384
    139a:	0139                	addi	sp,sp,14
    139c:	1d05                	addi	s10,s10,-31
    139e:	14090103          	lb	sp,320(s2)
    13a2:	0100                	addi	s0,sp,128
    13a4:	2105                	jal	17c4 <_data_lma+0x28c>
    13a6:	2c090203          	lb	tp,704(s2)
    13aa:	0100                	addi	s0,sp,128
    13ac:	0505                	addi	a0,a0,1
    13ae:	04090003          	lb	zero,64(s2)
    13b2:	0100                	addi	s0,sp,128
    13b4:	2105                	jal	17d4 <_data_lma+0x29c>
    13b6:	20090103          	lb	sp,512(s2)
    13ba:	0100                	addi	s0,sp,128
    13bc:	0505                	addi	a0,a0,1
    13be:	04090003          	lb	zero,64(s2)
    13c2:	0100                	addi	s0,sp,128
    13c4:	2105                	jal	17e4 <_data_lma+0x2ac>
    13c6:	20090103          	lb	sp,512(s2)
    13ca:	0100                	addi	s0,sp,128
    13cc:	0505                	addi	a0,a0,1
    13ce:	04090003          	lb	zero,64(s2)
    13d2:	0100                	addi	s0,sp,128
    13d4:	2105                	jal	17f4 <_data_lma+0x2bc>
    13d6:	20090103          	lb	sp,512(s2)
    13da:	0100                	addi	s0,sp,128
    13dc:	0505                	addi	a0,a0,1
    13de:	04090003          	lb	zero,64(s2)
    13e2:	0100                	addi	s0,sp,128
    13e4:	2505                	jal	1a04 <_data_lma+0x4cc>
    13e6:	20090203          	lb	tp,512(s2)
    13ea:	0100                	addi	s0,sp,128
    13ec:	3005                	jal	c0c <digital_clock_init+0x78>
    13ee:	04090003          	lb	zero,64(s2)
    13f2:	0100                	addi	s0,sp,128
    13f4:	3d05                	jal	1224 <button_action+0x1dc>
    13f6:	14090003          	lb	zero,320(s2)
    13fa:	0100                	addi	s0,sp,128
    13fc:	3005                	jal	c1c <digital_clock_init+0x88>
    13fe:	04090003          	lb	zero,64(s2)
    1402:	0100                	addi	s0,sp,128
    1404:	0d05                	addi	s10,s10,1
    1406:	1c090003          	lb	zero,448(s2)
    140a:	0100                	addi	s0,sp,128
    140c:	0505                	addi	a0,a0,1
    140e:	08090103          	lb	sp,128(s2)
    1412:	0100                	addi	s0,sp,128
    1414:	0105                	addi	sp,sp,1
    1416:	0c090103          	lb	sp,192(s2)
    141a:	0100                	addi	s0,sp,128
    141c:	1809                	addi	a6,a6,-30
    141e:	0000                	unimp
    1420:	0101                	addi	sp,sp,0
    1422:	1b05                	addi	s6,s6,-31
    1424:	0500                	addi	s0,sp,640
    1426:	1402                	slli	s0,s0,0x20
    1428:	0300000f          	fence	rw,unknown
    142c:	00c5                	addi	ra,ra,17
    142e:	0501                	addi	a0,a0,0
    1430:	031d                	addi	t1,t1,7
    1432:	0901                	addi	s2,s2,0
    1434:	0014                	0x14
    1436:	0501                	addi	a0,a0,0
    1438:	0321                	addi	t1,t1,8
    143a:	0902                	c.slli64	s2
    143c:	002c                	addi	a1,sp,8
    143e:	0501                	addi	a0,a0,0
    1440:	0305                	addi	t1,t1,1
    1442:	0900                	addi	s0,sp,144
    1444:	0004                	0x4
    1446:	0501                	addi	a0,a0,0
    1448:	0321                	addi	t1,t1,8
    144a:	0901                	addi	s2,s2,0
    144c:	0020                	addi	s0,sp,8
    144e:	0501                	addi	a0,a0,0
    1450:	0305                	addi	t1,t1,1
    1452:	0900                	addi	s0,sp,144
    1454:	0004                	0x4
    1456:	0501                	addi	a0,a0,0
    1458:	0321                	addi	t1,t1,8
    145a:	0901                	addi	s2,s2,0
    145c:	0020                	addi	s0,sp,8
    145e:	0501                	addi	a0,a0,0
    1460:	0305                	addi	t1,t1,1
    1462:	0900                	addi	s0,sp,144
    1464:	0004                	0x4
    1466:	0501                	addi	a0,a0,0
    1468:	0321                	addi	t1,t1,8
    146a:	0901                	addi	s2,s2,0
    146c:	0020                	addi	s0,sp,8
    146e:	0501                	addi	a0,a0,0
    1470:	0305                	addi	t1,t1,1
    1472:	0900                	addi	s0,sp,144
    1474:	0004                	0x4
    1476:	0501                	addi	a0,a0,0
    1478:	0325                	addi	t1,t1,9
    147a:	0902                	c.slli64	s2
    147c:	0020                	addi	s0,sp,8
    147e:	0501                	addi	a0,a0,0
    1480:	0330                	addi	a2,sp,392
    1482:	0900                	addi	s0,sp,144
    1484:	0004                	0x4
    1486:	0501                	addi	a0,a0,0
    1488:	033d                	addi	t1,t1,15
    148a:	0900                	addi	s0,sp,144
    148c:	0014                	0x14
    148e:	0501                	addi	a0,a0,0
    1490:	0330                	addi	a2,sp,392
    1492:	0900                	addi	s0,sp,144
    1494:	0004                	0x4
    1496:	0501                	addi	a0,a0,0
    1498:	030d                	addi	t1,t1,3
    149a:	0900                	addi	s0,sp,144
    149c:	001c                	0x1c
    149e:	0501                	addi	a0,a0,0
    14a0:	0305                	addi	t1,t1,1
    14a2:	0901                	addi	s2,s2,0
    14a4:	0008                	0x8
    14a6:	0501                	addi	a0,a0,0
    14a8:	0301                	addi	t1,t1,0
    14aa:	0901                	addi	s2,s2,0
    14ac:	000c                	0xc
    14ae:	0901                	addi	s2,s2,0
    14b0:	0018                	0x18
    14b2:	0100                	addi	s0,sp,128
    14b4:	0501                	addi	a0,a0,0
    14b6:	0031                	c.nop	12
    14b8:	0205                	addi	tp,tp,1
    14ba:	1048                	addi	a0,sp,36
    14bc:	0000                	unimp
    14be:	0100d103          	lhu	sp,16(ra)
    14c2:	1e05                	addi	t3,t3,-31
    14c4:	14090103          	lb	sp,320(s2)
    14c8:	0100                	addi	s0,sp,128
    14ca:	0705                	addi	a4,a4,1
    14cc:	0c090103          	lb	sp,192(s2)
    14d0:	0100                	addi	s0,sp,128
    14d2:	08090303          	lb	t1,128(s2)
    14d6:	0100                	addi	s0,sp,128
    14d8:	0c05                	addi	s8,s8,1
    14da:	08090103          	lb	sp,128(s2)
    14de:	0100                	addi	s0,sp,128
    14e0:	0b05                	addi	s6,s6,1
    14e2:	04090003          	lb	zero,64(s2)
    14e6:	0100                	addi	s0,sp,128
    14e8:	1b05                	addi	s6,s6,-31
    14ea:	04090103          	lb	sp,64(s2)
    14ee:	0100                	addi	s0,sp,128
    14f0:	08090103          	lb	sp,128(s2)
    14f4:	0100                	addi	s0,sp,128
    14f6:	0d05                	addi	s10,s10,1
    14f8:	08090103          	lb	sp,128(s2)
    14fc:	0100                	addi	s0,sp,128
    14fe:	1b05                	addi	s6,s6,-31
    1500:	0c090203          	lb	tp,192(s2)
    1504:	0100                	addi	s0,sp,128
    1506:	0b05                	addi	s6,s6,1
    1508:	08090003          	lb	zero,128(s2)
    150c:	0100                	addi	s0,sp,128
    150e:	2105                	jal	192e <_data_lma+0x3f6>
    1510:	04090103          	lb	sp,64(s2)
    1514:	0100                	addi	s0,sp,128
    1516:	1b05                	addi	s6,s6,-31
    1518:	08090103          	lb	sp,128(s2)
    151c:	0100                	addi	s0,sp,128
    151e:	0d05                	addi	s10,s10,1
    1520:	08090103          	lb	sp,128(s2)
    1524:	0100                	addi	s0,sp,128
    1526:	1b05                	addi	s6,s6,-31
    1528:	0c090203          	lb	tp,192(s2)
    152c:	0100                	addi	s0,sp,128
    152e:	0b05                	addi	s6,s6,1
    1530:	08090003          	lb	zero,128(s2)
    1534:	0100                	addi	s0,sp,128
    1536:	1a05                	addi	s4,s4,-31
    1538:	04090103          	lb	sp,64(s2)
    153c:	0100                	addi	s0,sp,128
    153e:	0d05                	addi	s10,s10,1
    1540:	08090103          	lb	sp,128(s2)
    1544:	0100                	addi	s0,sp,128
    1546:	1b05                	addi	s6,s6,-31
    1548:	0c090203          	lb	tp,192(s2)
    154c:	0100                	addi	s0,sp,128
    154e:	0b05                	addi	s6,s6,1
    1550:	08090003          	lb	zero,128(s2)
    1554:	0100                	addi	s0,sp,128
    1556:	1a05                	addi	s4,s4,-31
    1558:	04090103          	lb	sp,64(s2)
    155c:	0100                	addi	s0,sp,128
    155e:	1b05                	addi	s6,s6,-31
    1560:	04090103          	lb	sp,64(s2)
    1564:	0100                	addi	s0,sp,128
    1566:	0d05                	addi	s10,s10,1
    1568:	04090103          	lb	sp,64(s2)
    156c:	0100                	addi	s0,sp,128
    156e:	10090203          	lb	tp,256(s2)
    1572:	0100                	addi	s0,sp,128
    1574:	0c05                	addi	s8,s8,1
    1576:	0c090103          	lb	sp,192(s2)
    157a:	0100                	addi	s0,sp,128
    157c:	0b05                	addi	s6,s6,1
    157e:	04090003          	lb	zero,64(s2)
    1582:	0100                	addi	s0,sp,128
    1584:	1b05                	addi	s6,s6,-31
    1586:	04090103          	lb	sp,64(s2)
    158a:	0100                	addi	s0,sp,128
    158c:	14090103          	lb	sp,320(s2)
    1590:	0100                	addi	s0,sp,128
    1592:	0b05                	addi	s6,s6,1
    1594:	08090003          	lb	zero,128(s2)
    1598:	0100                	addi	s0,sp,128
    159a:	1b05                	addi	s6,s6,-31
    159c:	04090103          	lb	sp,64(s2)
    15a0:	0100                	addi	s0,sp,128
    15a2:	0c090103          	lb	sp,192(s2)
    15a6:	0100                	addi	s0,sp,128
    15a8:	0b05                	addi	s6,s6,1
    15aa:	08090003          	lb	zero,128(s2)
    15ae:	0100                	addi	s0,sp,128
    15b0:	1b05                	addi	s6,s6,-31
    15b2:	04090103          	lb	sp,64(s2)
    15b6:	0100                	addi	s0,sp,128
    15b8:	0c090103          	lb	sp,192(s2)
    15bc:	0100                	addi	s0,sp,128
    15be:	0b05                	addi	s6,s6,1
    15c0:	08090003          	lb	zero,128(s2)
    15c4:	0100                	addi	s0,sp,128
    15c6:	1b05                	addi	s6,s6,-31
    15c8:	04090103          	lb	sp,64(s2)
    15cc:	0100                	addi	s0,sp,128
    15ce:	14090103          	lb	sp,320(s2)
    15d2:	0100                	addi	s0,sp,128
    15d4:	0b05                	addi	s6,s6,1
    15d6:	08090003          	lb	zero,128(s2)
    15da:	0100                	addi	s0,sp,128
    15dc:	1b05                	addi	s6,s6,-31
    15de:	04090103          	lb	sp,64(s2)
    15e2:	0100                	addi	s0,sp,128
    15e4:	0c090103          	lb	sp,192(s2)
    15e8:	0100                	addi	s0,sp,128
    15ea:	0b05                	addi	s6,s6,1
    15ec:	08090003          	lb	zero,128(s2)
    15f0:	0100                	addi	s0,sp,128
    15f2:	1b05                	addi	s6,s6,-31
    15f4:	04090103          	lb	sp,64(s2)
    15f8:	0100                	addi	s0,sp,128
    15fa:	1705                	addi	a4,a4,-31
    15fc:	0c090303          	lb	t1,192(s2)
    1600:	0100                	addi	s0,sp,128
    1602:	14090103          	lb	sp,320(s2)
    1606:	0100                	addi	s0,sp,128
    1608:	1b05                	addi	s6,s6,-31
    160a:	20090203          	lb	tp,512(s2)
    160e:	0100                	addi	s0,sp,128
    1610:	0b05                	addi	s6,s6,1
    1612:	08090003          	lb	zero,128(s2)
    1616:	0100                	addi	s0,sp,128
    1618:	1b05                	addi	s6,s6,-31
    161a:	04090103          	lb	sp,64(s2)
    161e:	0100                	addi	s0,sp,128
    1620:	0d05                	addi	s10,s10,1
    1622:	04090103          	lb	sp,64(s2)
    1626:	0100                	addi	s0,sp,128
    1628:	1b05                	addi	s6,s6,-31
    162a:	0c090203          	lb	tp,192(s2)
    162e:	0100                	addi	s0,sp,128
    1630:	0b05                	addi	s6,s6,1
    1632:	08090003          	lb	zero,128(s2)
    1636:	0100                	addi	s0,sp,128
    1638:	0d05                	addi	s10,s10,1
    163a:	04090103          	lb	sp,64(s2)
    163e:	0100                	addi	s0,sp,128
    1640:	1b05                	addi	s6,s6,-31
    1642:	0c090103          	lb	sp,192(s2)
    1646:	0100                	addi	s0,sp,128
    1648:	0d05                	addi	s10,s10,1
    164a:	04090103          	lb	sp,64(s2)
    164e:	0100                	addi	s0,sp,128
    1650:	1705                	addi	a4,a4,-31
    1652:	0c090303          	lb	t1,192(s2)
    1656:	0100                	addi	s0,sp,128
    1658:	14090103          	lb	sp,320(s2)
    165c:	0100                	addi	s0,sp,128
    165e:	0d05                	addi	s10,s10,1
    1660:	24090103          	lb	sp,576(s2)
    1664:	0100                	addi	s0,sp,128
    1666:	0c05                	addi	s8,s8,1
    1668:	0c090103          	lb	sp,192(s2)
    166c:	0100                	addi	s0,sp,128
    166e:	0b05                	addi	s6,s6,1
    1670:	04090003          	lb	zero,64(s2)
    1674:	0100                	addi	s0,sp,128
    1676:	2105                	jal	1a96 <_data_lma+0x55e>
    1678:	04090103          	lb	sp,64(s2)
    167c:	0100                	addi	s0,sp,128
    167e:	1b05                	addi	s6,s6,-31
    1680:	14090103          	lb	sp,320(s2)
    1684:	0100                	addi	s0,sp,128
    1686:	0b05                	addi	s6,s6,1
    1688:	08090003          	lb	zero,128(s2)
    168c:	0100                	addi	s0,sp,128
    168e:	2105                	jal	1aae <_data_lma+0x576>
    1690:	04090103          	lb	sp,64(s2)
    1694:	0100                	addi	s0,sp,128
    1696:	1b05                	addi	s6,s6,-31
    1698:	0c090103          	lb	sp,192(s2)
    169c:	0100                	addi	s0,sp,128
    169e:	0b05                	addi	s6,s6,1
    16a0:	08090003          	lb	zero,128(s2)
    16a4:	0100                	addi	s0,sp,128
    16a6:	2105                	jal	1ac6 <_data_lma+0x58e>
    16a8:	04090103          	lb	sp,64(s2)
    16ac:	0100                	addi	s0,sp,128
    16ae:	1b05                	addi	s6,s6,-31
    16b0:	0c090103          	lb	sp,192(s2)
    16b4:	0100                	addi	s0,sp,128
    16b6:	0b05                	addi	s6,s6,1
    16b8:	08090003          	lb	zero,128(s2)
    16bc:	0100                	addi	s0,sp,128
    16be:	2105                	jal	1ade <_data_lma+0x5a6>
    16c0:	04090103          	lb	sp,64(s2)
    16c4:	0100                	addi	s0,sp,128
    16c6:	1b05                	addi	s6,s6,-31
    16c8:	14090103          	lb	sp,320(s2)
    16cc:	0100                	addi	s0,sp,128
    16ce:	0b05                	addi	s6,s6,1
    16d0:	08090003          	lb	zero,128(s2)
    16d4:	0100                	addi	s0,sp,128
    16d6:	2105                	jal	1af6 <_data_lma+0x5be>
    16d8:	04090103          	lb	sp,64(s2)
    16dc:	0100                	addi	s0,sp,128
    16de:	1b05                	addi	s6,s6,-31
    16e0:	0c090103          	lb	sp,192(s2)
    16e4:	0100                	addi	s0,sp,128
    16e6:	0b05                	addi	s6,s6,1
    16e8:	08090003          	lb	zero,128(s2)
    16ec:	0100                	addi	s0,sp,128
    16ee:	2105                	jal	1b0e <_data_lma+0x5d6>
    16f0:	04090103          	lb	sp,64(s2)
    16f4:	0100                	addi	s0,sp,128
    16f6:	1d05                	addi	s10,s10,-31
    16f8:	0c090303          	lb	t1,192(s2)
    16fc:	0100                	addi	s0,sp,128
    16fe:	14090103          	lb	sp,320(s2)
    1702:	0100                	addi	s0,sp,128
    1704:	1b05                	addi	s6,s6,-31
    1706:	20090203          	lb	tp,512(s2)
    170a:	0100                	addi	s0,sp,128
    170c:	0b05                	addi	s6,s6,1
    170e:	08090003          	lb	zero,128(s2)
    1712:	0100                	addi	s0,sp,128
    1714:	1b05                	addi	s6,s6,-31
    1716:	04090103          	lb	sp,64(s2)
    171a:	0100                	addi	s0,sp,128
    171c:	0d05                	addi	s10,s10,1
    171e:	04090103          	lb	sp,64(s2)
    1722:	0100                	addi	s0,sp,128
    1724:	1b05                	addi	s6,s6,-31
    1726:	0c090203          	lb	tp,192(s2)
    172a:	0100                	addi	s0,sp,128
    172c:	0b05                	addi	s6,s6,1
    172e:	08090003          	lb	zero,128(s2)
    1732:	0100                	addi	s0,sp,128
    1734:	1d05                	addi	s10,s10,-31
    1736:	04090103          	lb	sp,64(s2)
    173a:	0100                	addi	s0,sp,128
    173c:	1b05                	addi	s6,s6,-31
    173e:	08090103          	lb	sp,128(s2)
    1742:	0100                	addi	s0,sp,128
    1744:	0d05                	addi	s10,s10,1
    1746:	04090103          	lb	sp,64(s2)
    174a:	0100                	addi	s0,sp,128
    174c:	0905                	addi	s2,s2,1
    174e:	097fb303          	0x97fb303
    1752:	0010                	0x10
    1754:	0501                	addi	a0,a0,0
    1756:	0301                	addi	t1,t1,0
    1758:	00d0                	addi	a2,sp,68
    175a:	0409                	addi	s0,s0,2
    175c:	0100                	addi	s0,sp,128
    175e:	1009                	c.nop	-30
    1760:	0000                	unimp
    1762:	0101                	addi	sp,sp,0
    1764:	3205                	jal	1084 <button_action+0x3c>
    1766:	0500                	addi	s0,sp,640
    1768:	9402                	jalr	s0
    176a:	03000013          	li	zero,48
    176e:	01a6                	slli	gp,gp,0x9
    1770:	0501                	addi	a0,a0,0
    1772:	031f 0902 0014      	0x140902031f
    1778:	0501                	addi	a0,a0,0
    177a:	09000313          	li	t1,144
    177e:	0018                	0x18
    1780:	0501                	addi	a0,a0,0
    1782:	031f 0901 0008      	0x80901031f
    1788:	0501                	addi	a0,a0,0
    178a:	09000327          	0x9000327
    178e:	0018                	0x18
    1790:	0501                	addi	a0,a0,0
    1792:	0312                	slli	t1,t1,0x4
    1794:	0900                	addi	s0,sp,144
    1796:	0010                	0x10
    1798:	0501                	addi	a0,a0,0
    179a:	031e                	slli	t1,t1,0x7
    179c:	0901                	addi	s2,s2,0
    179e:	0008                	0x8
    17a0:	0501                	addi	a0,a0,0
    17a2:	0312                	slli	t1,t1,0x4
    17a4:	0900                	addi	s0,sp,144
    17a6:	0014                	0x14
    17a8:	0501                	addi	a0,a0,0
    17aa:	030c                	addi	a1,sp,384
    17ac:	0901                	addi	s2,s2,0
    17ae:	0008                	0x8
    17b0:	0501                	addi	a0,a0,0
    17b2:	0301                	addi	t1,t1,0
    17b4:	0901                	addi	s2,s2,0
    17b6:	005c                	addi	a5,sp,4
    17b8:	0901                	addi	s2,s2,0
    17ba:	0014                	0x14
    17bc:	0100                	addi	s0,sp,128
    17be:	01              	Address 0x00000000000017be is out of bounds.


Disassembly of section .debug_info:

00000000 <.debug_info>:
   0:	0022                	c.slli	zero,0x8
   2:	0000                	unimp
   4:	0002                	c.slli64	zero
   6:	0000                	unimp
   8:	0000                	unimp
   a:	0104                	addi	s1,sp,128
	...
  14:	0068                	addi	a0,sp,12
  16:	0000                	unimp
  18:	0000                	unimp
  1a:	0000                	unimp
  1c:	000c                	0xc
  1e:	0000                	unimp
  20:	005a                	c.slli	zero,0x16
  22:	0000                	unimp
  24:	8001                	c.srli64	s0
  26:	0022                	c.slli	zero,0x8
  28:	0000                	unimp
  2a:	0002                	c.slli64	zero
  2c:	0014                	0x14
  2e:	0000                	unimp
  30:	0104                	addi	s1,sp,128
  32:	00b4                	addi	a3,sp,72
  34:	0000                	unimp
  36:	0068                	addi	a0,sp,12
  38:	0000                	unimp
  3a:	0190                	addi	a2,sp,192
  3c:	0000                	unimp
  3e:	0066                	c.slli	zero,0x19
  40:	0000                	unimp
  42:	000c                	0xc
  44:	0000                	unimp
  46:	005a                	c.slli	zero,0x16
  48:	0000                	unimp
  4a:	8001                	c.srli64	s0
  4c:	00cc                	addi	a1,sp,68
  4e:	0000                	unimp
  50:	0004                	0x4
  52:	0028                	addi	a0,sp,8
  54:	0000                	unimp
  56:	0104                	addi	s1,sp,128
  58:	008c                	addi	a1,sp,64
  5a:	0000                	unimp
  5c:	7b0c                	flw	fa1,48(a4)
  5e:	0001                	nop
  60:	0c00                	addi	s0,sp,528
	...
  6a:	0000                	unimp
  6c:	ab00                	fsd	fs0,16(a4)
  6e:	0002                	c.slli64	zero
  70:	0200                	addi	s0,sp,256
  72:	0601                	addi	a2,a2,0
  74:	011e                	slli	sp,sp,0x7
  76:	0000                	unimp
  78:	0102                	c.slli64	sp
  7a:	1c08                	addi	a0,sp,560
  7c:	0001                	nop
  7e:	0200                	addi	s0,sp,256
  80:	0502                	c.slli64	a0
  82:	0194                	addi	a3,sp,192
  84:	0000                	unimp
  86:	0202                	c.slli64	tp
  88:	00013407          	fld	fs0,0(sp)
  8c:	0200                	addi	s0,sp,256
  8e:	0504                	addi	s1,sp,640
  90:	0172                	slli	sp,sp,0x1c
  92:	0000                	unimp
  94:	0402                	c.slli64	s0
  96:	00015b07          	0x15b07
  9a:	0200                	addi	s0,sp,256
  9c:	0508                	addi	a0,sp,640
  9e:	016d                	addi	sp,sp,27
  a0:	0000                	unimp
  a2:	0802                	c.slli64	a6
  a4:	00015607          	0x15607
  a8:	0300                	addi	s0,sp,384
  aa:	0504                	addi	s1,sp,640
  ac:	6e69                	lui	t3,0x1a
  ae:	0074                	addi	a3,sp,12
  b0:	0402                	c.slli64	s0
  b2:	00016007          	0x16007
  b6:	0400                	addi	s0,sp,512
  b8:	0076                	c.slli	zero,0x1d
  ba:	0000                	unimp
  bc:	2c05                	jal	2ec <xputc+0x70>
  be:	0000                	unimp
  c0:	0000                	unimp
  c2:	4c06                	lw	s8,64(sp)
  c4:	0001                	nop
  c6:	0200                	addi	s0,sp,256
  c8:	00820f0b          	0x820f0b
  cc:	0000                	unimp
  ce:	006b0407          	0x6b0407
  d2:	0000                	unimp
  d4:	7708                	flw	fa0,40(a4)
  d6:	0000                	unimp
  d8:	0700                	addi	s0,sp,896
  da:	6404                	flw	fs1,8(s0)
  dc:	0000                	unimp
  de:	0300                	addi	s0,sp,384
  e0:	060d                	addi	a2,a2,3
  e2:	00ad                	addi	ra,ra,11
  e4:	0000                	unimp
  e6:	2a09                	jal	1f8 <main+0x68>
  e8:	0001                	nop
  ea:	0000                	unimp
  ec:	8309                	srli	a4,a4,0x2
  ee:	0000                	unimp
  f0:	0100                	addi	s0,sp,128
  f2:	1209                	addi	tp,tp,-30
  f4:	0001                	nop
  f6:	0200                	addi	s0,sp,256
  f8:	0600                	addi	s0,sp,768
  fa:	0186                	slli	gp,gp,0x1
  fc:	0000                	unimp
  fe:	88191a03          	lh	s4,-1919(s2)
 102:	0000                	unimp
 104:	0a00                	addi	s0,sp,272
 106:	00000147          	fmsub.s	ft2,ft0,ft0,ft0,rne
 10a:	0801                	addi	a6,a6,0
 10c:	5d05                	li	s10,-31
 10e:	0000                	unimp
 110:	9000                	0x9000
 112:	0001                	nop
 114:	6c00                	flw	fs0,24(s0)
 116:	0000                	unimp
 118:	0100                	addi	s0,sp,128
 11a:	009c                	addi	a5,sp,64
 11c:	0120                	addi	s0,sp,136
 11e:	0000                	unimp
 120:	0004                	0x4
 122:	00b6                	slli	ra,ra,0xd
 124:	0000                	unimp
 126:	0104                	addi	s1,sp,128
 128:	008c                	addi	a1,sp,64
 12a:	0000                	unimp
 12c:	a80c                	fsd	fa1,16(s0)
 12e:	0001                	nop
 130:	0c00                	addi	s0,sp,528
 132:	0000                	unimp
 134:	1000                	addi	s0,sp,32
 136:	0000                	unimp
 138:	0000                	unimp
 13a:	0000                	unimp
 13c:	8c00                	0x8c00
 13e:	02000003          	lb	zero,32(zero) # 20 <_start+0x20>
 142:	0601                	addi	a2,a2,0
 144:	011e                	slli	sp,sp,0x7
 146:	0000                	unimp
 148:	00019e03          	lh	t3,0(gp) # 1000998 <__global_pointer$>
 14c:	0200                	addi	s0,sp,256
 14e:	0038182b          	0x38182b
 152:	0000                	unimp
 154:	0102                	c.slli64	sp
 156:	1c08                	addi	a0,sp,560
 158:	0001                	nop
 15a:	0200                	addi	s0,sp,256
 15c:	0502                	c.slli64	a0
 15e:	0194                	addi	a3,sp,192
 160:	0000                	unimp
 162:	0202                	c.slli64	tp
 164:	00013407          	fld	fs0,0(sp)
 168:	0200                	addi	s0,sp,256
 16a:	0504                	addi	s1,sp,640
 16c:	0172                	slli	sp,sp,0x1c
 16e:	0000                	unimp
 170:	0001d803          	lhu	a6,0(gp) # 1000998 <__global_pointer$>
 174:	0200                	addi	s0,sp,256
 176:	0060194f          	fnmadd.s	fs2,ft0,ft6,ft0,rtz
 17a:	0000                	unimp
 17c:	0402                	c.slli64	s0
 17e:	00015b07          	0x15b07
 182:	0200                	addi	s0,sp,256
 184:	0508                	addi	a0,sp,640
 186:	016d                	addi	sp,sp,27
 188:	0000                	unimp
 18a:	0802                	c.slli64	a6
 18c:	00015607          	0x15607
 190:	0400                	addi	s0,sp,512
 192:	0504                	addi	s1,sp,640
 194:	6e69                	lui	t3,0x1a
 196:	0074                	addi	a3,sp,12
 198:	0402                	c.slli64	s0
 19a:	00016007          	0x16007
 19e:	0300                	addi	s0,sp,384
 1a0:	01a0                	addi	s0,sp,200
 1a2:	0000                	unimp
 1a4:	2c131803          	lh	a6,705(t1) # ffffe2c1 <__freertos_irq_stack_top+0xfeffa2c1>
 1a8:	0000                	unimp
 1aa:	0300                	addi	s0,sp,384
 1ac:	01da                	slli	gp,gp,0x16
 1ae:	0000                	unimp
 1b0:	54143003          	0x54143003
 1b4:	0000                	unimp
 1b6:	0500                	addi	s0,sp,640
 1b8:	00a6                	slli	ra,ra,0x9
 1ba:	0000                	unimp
 1bc:	3806                	fld	fa6,96(sp)
 1be:	0000                	unimp
 1c0:	0000                	unimp
 1c2:	00014c07          	flq	fs8,0(sp)
 1c6:	0400                	addi	s0,sp,512
 1c8:	00b20f0b          	0xb20f0b
 1cc:	0000                	unimp
 1ce:	0408                	addi	a0,sp,512
 1d0:	0000009b          	0x9b
 1d4:	b309                	j	fffffed6 <__freertos_irq_stack_top+0xfeffbed6>
 1d6:	0001                	nop
 1d8:	0100                	addi	s0,sp,128
 1da:	061a                	slli	a2,a2,0x6
 1dc:	0248                	addi	a0,sp,260
 1de:	0000                	unimp
 1e0:	0034                	addi	a3,sp,8
 1e2:	0000                	unimp
 1e4:	9c01                	0x9c01
 1e6:	ce0a                	sw	sp,28(sp)
 1e8:	0001                	nop
 1ea:	0100                	addi	s0,sp,128
 1ec:	0083090f          	0x83090f
	...
 1f8:	0000                	unimp
 1fa:	9c01                	0x9c01
 1fc:	00000103          	lb	sp,0(zero) # 0 <_start>
 200:	0001ed0b          	0x1ed0b
 204:	0100                	addi	s0,sp,128
 206:	008f1c0f          	0x8f1c0f
 20a:	0000                	unimp
 20c:	9102                	jalr	sp
 20e:	0c5c                	addi	a5,sp,532
 210:	01bd                	addi	gp,gp,15
 212:	0000                	unimp
 214:	1101                	addi	sp,sp,-32
 216:	8f11                	sub	a4,a4,a2
 218:	0000                	unimp
 21a:	0200                	addi	s0,sp,256
 21c:	6c91                	lui	s9,0x4
 21e:	0d00                	addi	s0,sp,656
 220:	000001e3          	beqz	zero,a22 <sec_clock_clr+0xa>
 224:	0801                	addi	a6,a6,0
 226:	fc06                	fsw	ft1,56(sp)
 228:	0001                	nop
 22a:	4c00                	lw	s0,24(s0)
 22c:	0000                	unimp
 22e:	0100                	addi	s0,sp,128
 230:	0e9c                	addi	a5,sp,848
 232:	08010063          	beqz	sp,2b2 <xputc+0x36>
 236:	8318                	0x8318
 238:	0000                	unimp
 23a:	0200                	addi	s0,sp,256
 23c:	6f91                	lui	t6,0x4
 23e:	0000                	unimp
 240:	01f0                	addi	a2,sp,204
 242:	0000                	unimp
 244:	0004                	0x4
 246:	019e                	slli	gp,gp,0x7
 248:	0000                	unimp
 24a:	0104                	addi	s1,sp,128
 24c:	008c                	addi	a1,sp,64
 24e:	0000                	unimp
 250:	330c                	fld	fa1,32(a4)
 252:	0002                	c.slli64	zero
 254:	0c00                	addi	s0,sp,528
 256:	0000                	unimp
 258:	3000                	fld	fs0,32(s0)
 25a:	0000                	unimp
 25c:	0000                	unimp
 25e:	0000                	unimp
 260:	6000                	flw	fs0,0(s0)
 262:	0005                	c.nop	1
 264:	0200                	addi	s0,sp,256
 266:	0030                	addi	a2,sp,8
 268:	0000                	unimp
 26a:	00003003          	0x3003
 26e:	0000                	unimp
 270:	0104                	addi	s1,sp,128
 272:	1c08                	addi	a0,sp,560
 274:	0001                	nop
 276:	0500                	addi	s0,sp,640
 278:	014c                	addi	a1,sp,132
 27a:	0000                	unimp
 27c:	430f0b03          	lb	s6,1072(t5)
 280:	0000                	unimp
 282:	0600                	addi	s0,sp,768
 284:	2504                	fld	fs1,8(a0)
 286:	0000                	unimp
 288:	0700                	addi	s0,sp,896
 28a:	0224                	addi	s1,sp,264
 28c:	0000                	unimp
 28e:	2802                	fld	fa6,0(sp)
 290:	0000551b          	0x551b
 294:	0800                	addi	s0,sp,16
 296:	fa04                	fsw	fs1,48(a2)
 298:	0001                	nop
 29a:	0700                	addi	s0,sp,896
 29c:	0000022b          	0x22b
 2a0:	6302                	flw	ft6,0(sp)
 2a2:	4918                	lw	a4,16(a0)
 2a4:	0000                	unimp
 2a6:	0900                	addi	s0,sp,144
 2a8:	00000037          	lui	zero,0x0
 2ac:	1301                	addi	t1,t1,-32
 2ae:	0508                	addi	a0,sp,640
 2b0:	0001a403          	lw	s0,0(gp) # 1000998 <__global_pointer$>
 2b4:	0a01                	addi	s4,s4,0
 2b6:	020c                	addi	a1,sp,256
 2b8:	0000                	unimp
 2ba:	1401                	addi	s0,s0,-32
 2bc:	870e                	mv	a4,gp
 2be:	0000                	unimp
 2c0:	0500                	addi	s0,sp,640
 2c2:	0001a003          	lw	zero,0(gp) # 1000998 <__global_pointer$>
 2c6:	0601                	addi	a2,a2,0
 2c8:	8d04                	0x8d04
 2ca:	0000                	unimp
 2cc:	0400                	addi	s0,sp,512
 2ce:	0801                	addi	a6,a6,0
 2d0:	0125                	addi	sp,sp,9
 2d2:	0000                	unimp
 2d4:	00008d0b          	0x8d0b
 2d8:	0c00                	addi	s0,sp,528
 2da:	00000213          	li	tp,0
 2de:	9201                	srli	a2,a2,0x20
 2e0:	e406                	fsw	ft1,8(sp)
 2e2:	60000007          	0x60000007
 2e6:	0000                	unimp
 2e8:	0100                	addi	s0,sp,128
 2ea:	d09c                	sw	a5,32(s1)
 2ec:	0000                	unimp
 2ee:	0d00                	addi	s0,sp,656
 2f0:	6d66                	flw	fs10,88(sp)
 2f2:	0074                	addi	a3,sp,12
 2f4:	9301                	srli	a4,a4,0x20
 2f6:	d00e                	sw	gp,32(sp)
 2f8:	0000                	unimp
 2fa:	0300                	addi	s0,sp,384
 2fc:	bc91                	j	fffffd50 <__freertos_irq_stack_top+0xfeffbd50>
 2fe:	0e7f                	0xe7f
 300:	7072610f          	0x7072610f
 304:	0100                	addi	s0,sp,128
 306:	005b0a97          	auipc	s5,0x5b0
 30a:	0000                	unimp
 30c:	9102                	jalr	sp
 30e:	004c                	addi	a1,sp,4
 310:	0406                	slli	s0,s0,0x1
 312:	0094                	addi	a3,sp,64
 314:	0000                	unimp
 316:	1b10                	addi	a2,sp,432
 318:	0002                	c.slli64	zero
 31a:	0100                	addi	s0,sp,128
 31c:	0646                	slli	a2,a2,0x11
 31e:	034c                	addi	a1,sp,388
 320:	0000                	unimp
 322:	0498                	addi	a4,sp,576
 324:	0000                	unimp
 326:	9c01                	0x9c01
 328:	0000018f          	0x18f
 32c:	660d                	lui	a2,0x3
 32e:	746d                	lui	s0,0xffffb
 330:	0100                	addi	s0,sp,128
 332:	00d00e47          	fmsub.s	ft8,ft0,fa3,ft0,rne
 336:	0000                	unimp
 338:	7fbc9103          	lh	sp,2043(s9) # 47fb <__stack_size+0x27fb>
 33c:	610d                	addi	sp,sp,160
 33e:	7072                	flw	ft0,60(sp)
 340:	0100                	addi	s0,sp,128
 342:	0a48                	addi	a0,sp,276
 344:	0000005b          	0x5b
 348:	7fb89103          	lh	sp,2043(a7)
 34c:	0100720f          	0x100720f
 350:	018f0f4b          	fnmsub.s	ft10,ft10,fs8,ft0,rne
 354:	0000                	unimp
 356:	9102                	jalr	sp
 358:	0f6c                	addi	a1,sp,924
 35a:	0069                	c.nop	26
 35c:	4b01                	li	s6,0
 35e:	8f12                	mv	t5,tp
 360:	0001                	nop
 362:	0200                	addi	s0,sp,256
 364:	6891                	lui	a7,0x4
 366:	01006a0f          	0x1006a0f
 36a:	018f154b          	fnmsub.s	fa0,ft10,fs8,ft0,rtz
 36e:	0000                	unimp
 370:	9102                	jalr	sp
 372:	0f64                	addi	s1,sp,924
 374:	4b010077          	0x4b010077
 378:	8f18                	0x8f18
 37a:	0001                	nop
 37c:	0200                	addi	s0,sp,256
 37e:	6091                	lui	ra,0x4
 380:	0100660f          	0x100660f
 384:	018f1b4b          	fnmsub.s	fs6,ft10,fs8,ft0,rtz
 388:	0000                	unimp
 38a:	9102                	jalr	sp
 38c:	0f5c                	addi	a5,sp,916
 38e:	0076                	c.slli	zero,0x1d
 390:	4c01                	li	s8,0
 392:	9610                	0x9610
 394:	0001                	nop
 396:	0200                	addi	s0,sp,256
 398:	5891                	li	a7,-28
 39a:	0100730f          	0x100730f
 39e:	074d                	addi	a4,a4,19
 3a0:	019d                	addi	gp,gp,7
 3a2:	0000                	unimp
 3a4:	9102                	jalr	sp
 3a6:	0f40                	addi	s0,sp,916
 3a8:	4d010063          	beq	sp,a6,868 <set_static_seg>
 3ac:	8d0e                	mv	s10,gp
 3ae:	0000                	unimp
 3b0:	0200                	addi	s0,sp,256
 3b2:	5791                	li	a5,-28
 3b4:	0100640f          	0x100640f
 3b8:	114d                	addi	sp,sp,-13
 3ba:	008d                	addi	ra,ra,3
 3bc:	0000                	unimp
 3be:	9102                	jalr	sp
 3c0:	0f56                	slli	t5,t5,0x15
 3c2:	0070                	addi	a2,sp,12
 3c4:	4d01                	li	s10,0
 3c6:	8715                	srai	a4,a4,0x5
 3c8:	0000                	unimp
 3ca:	0200                	addi	s0,sp,256
 3cc:	5091                	li	ra,-28
 3ce:	0400                	addi	s0,sp,512
 3d0:	0704                	addi	s1,sp,896
 3d2:	0160                	addi	s0,sp,140
 3d4:	0000                	unimp
 3d6:	0404                	addi	s1,sp,512
 3d8:	00015b07          	0x15b07
 3dc:	1100                	addi	s0,sp,160
 3de:	008d                	addi	ra,ra,3
 3e0:	0000                	unimp
 3e2:	01ad                	addi	gp,gp,11
 3e4:	0000                	unimp
 3e6:	8f12                	mv	t5,tp
 3e8:	0001                	nop
 3ea:	0f00                	addi	s0,sp,912
 3ec:	0c00                	addi	s0,sp,528
 3ee:	0241                	addi	tp,tp,16
 3f0:	0000                	unimp
 3f2:	2b01                	jal	902 <set_scan_seg_num+0x66>
 3f4:	fc06                	fsw	ft1,56(sp)
 3f6:	0002                	c.slli64	zero
 3f8:	5000                	lw	s0,32(s0)
 3fa:	0000                	unimp
 3fc:	0100                	addi	s0,sp,128
 3fe:	d39c                	sw	a5,32(a5)
 400:	0001                	nop
 402:	0d00                	addi	s0,sp,656
 404:	00727473          	csrrci	s0,0x7,4
 408:	2c01                	jal	618 <xvprintf+0x2cc>
 40a:	d00e                	sw	gp,32(sp)
 40c:	0000                	unimp
 40e:	0200                	addi	s0,sp,256
 410:	6c91                	lui	s9,0x4
 412:	1300                	addi	s0,sp,416
 414:	00000247          	fmsub.s	ft4,ft0,ft0,ft0,rne
 418:	1a01                	addi	s4,s4,-32
 41a:	7c06                	flw	fs8,96(sp)
 41c:	0002                	c.slli64	zero
 41e:	8000                	0x8000
 420:	0000                	unimp
 422:	0100                	addi	s0,sp,128
 424:	0d9c                	addi	a5,sp,720
 426:	1a010063          	beqz	sp,5c6 <xvprintf+0x27a>
 42a:	8d12                	mv	s10,tp
 42c:	0000                	unimp
 42e:	0200                	addi	s0,sp,256
 430:	6f91                	lui	t6,0x4
 432:	0000                	unimp
 434:	00b1                	addi	ra,ra,12
 436:	0000                	unimp
 438:	0004                	0x4
 43a:	02b1                	addi	t0,t0,12
 43c:	0000                	unimp
 43e:	0104                	addi	s1,sp,128
 440:	008c                	addi	a1,sp,64
 442:	0000                	unimp
 444:	4d0c                	lw	a1,24(a0)
 446:	0002                	c.slli64	zero
 448:	0c00                	addi	s0,sp,528
 44a:	0000                	unimp
 44c:	5800                	lw	s0,48(s0)
 44e:	0000                	unimp
 450:	0000                	unimp
 452:	0000                	unimp
 454:	3300                	fld	fs0,32(a4)
 456:	0200000b          	0x200000b
 45a:	0601                	addi	a2,a2,0
 45c:	011e                	slli	sp,sp,0x7
 45e:	0000                	unimp
 460:	0102                	c.slli64	sp
 462:	1c08                	addi	a0,sp,560
 464:	0001                	nop
 466:	0200                	addi	s0,sp,256
 468:	0502                	c.slli64	a0
 46a:	0194                	addi	a3,sp,192
 46c:	0000                	unimp
 46e:	0202                	c.slli64	tp
 470:	00013407          	fld	fs0,0(sp)
 474:	0200                	addi	s0,sp,256
 476:	0504                	addi	s1,sp,640
 478:	0172                	slli	sp,sp,0x1c
 47a:	0000                	unimp
 47c:	0001d803          	lhu	a6,0(gp) # 1000998 <__global_pointer$>
 480:	0200                	addi	s0,sp,256
 482:	0054194f          	fnmadd.s	fs2,fs0,ft5,ft0,rtz
 486:	0000                	unimp
 488:	0402                	c.slli64	s0
 48a:	00015b07          	0x15b07
 48e:	0200                	addi	s0,sp,256
 490:	0508                	addi	a0,sp,640
 492:	016d                	addi	sp,sp,27
 494:	0000                	unimp
 496:	0802                	c.slli64	a6
 498:	00015607          	0x15607
 49c:	0400                	addi	s0,sp,512
 49e:	0504                	addi	s1,sp,640
 4a0:	6e69                	lui	t3,0x1a
 4a2:	0074                	addi	a3,sp,12
 4a4:	0402                	c.slli64	s0
 4a6:	00016007          	0x16007
 4aa:	0300                	addi	s0,sp,384
 4ac:	01da                	slli	gp,gp,0x16
 4ae:	0000                	unimp
 4b0:	48143003          	0x48143003
 4b4:	0000                	unimp
 4b6:	0500                	addi	s0,sp,640
 4b8:	026c                	addi	a1,sp,268
 4ba:	0000                	unimp
 4bc:	0401                	addi	s0,s0,0
 4be:	4406                	lw	s0,64(sp)
 4c0:	0008                	0x8
 4c2:	2400                	fld	fs0,8(s0)
 4c4:	0000                	unimp
 4c6:	0100                	addi	s0,sp,128
 4c8:	069c                	addi	a5,sp,832
 4ca:	0260                	addi	s0,sp,268
 4cc:	0000                	unimp
 4ce:	0401                	addi	s0,s0,0
 4d0:	771c                	flw	fa5,40(a4)
 4d2:	0000                	unimp
 4d4:	0200                	addi	s0,sp,256
 4d6:	6c91                	lui	s9,0x4
 4d8:	6706                	flw	fa4,64(sp)
 4da:	0002                	c.slli64	zero
 4dc:	0100                	addi	s0,sp,128
 4de:	2d04                	fld	fs1,24(a0)
 4e0:	00000077          	0x77
 4e4:	9102                	jalr	sp
 4e6:	0068                	addi	a0,sp,12
 4e8:	6000                	flw	fs0,0(s0)
 4ea:	0001                	nop
 4ec:	0400                	addi	s0,sp,512
 4ee:	1500                	addi	s0,sp,672
 4f0:	04000003          	lb	zero,64(zero) # 40 <_start+0x40>
 4f4:	8c01                	sub	s0,s0,s0
 4f6:	0000                	unimp
 4f8:	0c00                	addi	s0,sp,528
 4fa:	02b2                	slli	t0,t0,0xc
 4fc:	0000                	unimp
 4fe:	000c                	0xc
 500:	0000                	unimp
 502:	0068                	addi	a0,sp,12
 504:	0000                	unimp
 506:	0000                	unimp
 508:	0000                	unimp
 50a:	00000c17          	auipc	s8,0x0
 50e:	0102                	c.slli64	sp
 510:	1e06                	slli	t3,t3,0x21
 512:	0001                	nop
 514:	0300                	addi	s0,sp,384
 516:	019e                	slli	gp,gp,0x7
 518:	0000                	unimp
 51a:	2b02                	fld	fs6,0(sp)
 51c:	3818                	fld	fa4,48(s0)
 51e:	0000                	unimp
 520:	0200                	addi	s0,sp,256
 522:	0801                	addi	a6,a6,0
 524:	011c                	addi	a5,sp,128
 526:	0000                	unimp
 528:	0202                	c.slli64	tp
 52a:	9405                	srai	s0,s0,0x21
 52c:	0001                	nop
 52e:	0200                	addi	s0,sp,256
 530:	0702                	c.slli64	a4
 532:	0134                	addi	a3,sp,136
 534:	0000                	unimp
 536:	0402                	c.slli64	s0
 538:	7205                	lui	tp,0xfffe1
 53a:	0001                	nop
 53c:	0300                	addi	s0,sp,384
 53e:	01d8                	addi	a4,sp,196
 540:	0000                	unimp
 542:	4f02                	lw	t5,0(sp)
 544:	6019                	c.lui	zero,0x6
 546:	0000                	unimp
 548:	0200                	addi	s0,sp,256
 54a:	0704                	addi	s1,sp,896
 54c:	0000015b          	0x15b
 550:	0802                	c.slli64	a6
 552:	6d05                	lui	s10,0x1
 554:	0001                	nop
 556:	0200                	addi	s0,sp,256
 558:	0708                	addi	a0,sp,896
 55a:	0156                	slli	sp,sp,0x15
 55c:	0000                	unimp
 55e:	0404                	addi	s1,sp,512
 560:	6905                	lui	s2,0x1
 562:	746e                	flw	fs0,248(sp)
 564:	0200                	addi	s0,sp,256
 566:	0704                	addi	s1,sp,896
 568:	0160                	addi	s0,sp,140
 56a:	0000                	unimp
 56c:	0001a003          	lw	zero,0(gp) # 1000998 <__global_pointer$>
 570:	0300                	addi	s0,sp,384
 572:	1318                	addi	a4,sp,416
 574:	002c                	addi	a1,sp,8
 576:	0000                	unimp
 578:	0001da03          	lhu	s4,0(gp) # 1000998 <__global_pointer$>
 57c:	0300                	addi	s0,sp,384
 57e:	1430                	addi	a2,sp,552
 580:	0054                	addi	a3,sp,4
 582:	0000                	unimp
 584:	c105                	beqz	a0,5a4 <xvprintf+0x258>
 586:	0002                	c.slli64	zero
 588:	0100                	addi	s0,sp,128
 58a:	0611                	addi	a2,a2,4
 58c:	0944                	addi	s1,sp,148
 58e:	0000                	unimp
 590:	00ac                	addi	a1,sp,72
 592:	0000                	unimp
 594:	9c01                	0x9c01
 596:	00ee                	slli	ra,ra,0x1b
 598:	0000                	unimp
 59a:	ac06                	fsd	ft1,24(sp)
 59c:	0002                	c.slli64	zero
 59e:	0100                	addi	s0,sp,128
 5a0:	2111                	jal	9a4 <set_scan_seg_state+0x60>
 5a2:	00000083          	lb	ra,0(zero) # 0 <_start>
 5a6:	9102                	jalr	sp
 5a8:	065f 02ce 0000      	0x2ce065f
 5ae:	1101                	addi	sp,sp,-32
 5b0:	0000832f          	0x832f
 5b4:	0200                	addi	s0,sp,256
 5b6:	5e91                	li	t4,-28
 5b8:	00028407          	0x28407
 5bc:	0100                	addi	s0,sp,128
 5be:	0e12                	slli	t3,t3,0x4
 5c0:	0000008f          	0x8f
 5c4:	9102                	jalr	sp
 5c6:	076c                	addi	a1,sp,908
 5c8:	0279                	addi	tp,tp,30
 5ca:	0000                	unimp
 5cc:	1301                	addi	t1,t1,-32
 5ce:	8f0e                	mv	t5,gp
 5d0:	0000                	unimp
 5d2:	0200                	addi	s0,sp,256
 5d4:	6891                	lui	a7,0x4
 5d6:	0500                	addi	s0,sp,640
 5d8:	0000029b          	0x29b
 5dc:	0701                	addi	a4,a4,0
 5de:	9c06                	add	s8,s8,ra
 5e0:	0008                	0x8
 5e2:	a800                	fsd	fs0,16(s0)
 5e4:	0000                	unimp
 5e6:	0100                	addi	s0,sp,128
 5e8:	419c                	lw	a5,0(a1)
 5ea:	0001                	nop
 5ec:	0600                	addi	s0,sp,768
 5ee:	02ac                	addi	a1,sp,328
 5f0:	0000                	unimp
 5f2:	0701                	addi	a4,a4,0
 5f4:	831f 0000 0200      	0x2000000831f
 5fa:	5f91                	li	t6,-28
 5fc:	6e08                	flw	fa0,24(a2)
 5fe:	6d75                	lui	s10,0x1d
 600:	0100                	addi	s0,sp,128
 602:	00832d07          	flw	fs10,8(t1)
 606:	0000                	unimp
 608:	9102                	jalr	sp
 60a:	075e                	slli	a4,a4,0x17
 60c:	0284                	addi	s1,sp,320
 60e:	0000                	unimp
 610:	0801                	addi	a6,a6,0
 612:	8f0e                	mv	t5,gp
 614:	0000                	unimp
 616:	0200                	addi	s0,sp,256
 618:	6c91                	lui	s9,0x4
 61a:	00027907          	0x27907
 61e:	0100                	addi	s0,sp,128
 620:	0e09                	addi	t3,t3,2
 622:	0000008f          	0x8f
 626:	9102                	jalr	sp
 628:	0068                	addi	a0,sp,12
 62a:	8c09                	sub	s0,s0,a0
 62c:	0002                	c.slli64	zero
 62e:	0100                	addi	s0,sp,128
 630:	08680603          	lb	a2,134(a6)
 634:	0000                	unimp
 636:	0034                	addi	a3,sp,8
 638:	0000                	unimp
 63a:	9c01                	0x9c01
 63c:	6e08                	flw	fa0,24(a2)
 63e:	6d75                	lui	s10,0x1d
 640:	0100                	addi	s0,sp,128
 642:	00831d03          	lh	s10,8(t1)
 646:	0000                	unimp
 648:	9102                	jalr	sp
 64a:	fa00006f          	j	fff00dea <__freertos_irq_stack_top+0xfeefcdea>
 64e:	0000                	unimp
 650:	0400                	addi	s0,sp,512
 652:	b700                	fsd	fs0,40(a4)
 654:	04000003          	lb	zero,64(zero) # 40 <_start+0x40>
 658:	8c01                	sub	s0,s0,s0
 65a:	0000                	unimp
 65c:	0c00                	addi	s0,sp,528
 65e:	02f9                	addi	t0,t0,30
 660:	0000                	unimp
 662:	000c                	0xc
 664:	0000                	unimp
 666:	0088                	addi	a0,sp,64
 668:	0000                	unimp
 66a:	0000                	unimp
 66c:	0000                	unimp
 66e:	00000e0f          	0xe0f
 672:	0102                	c.slli64	sp
 674:	1e06                	slli	t3,t3,0x21
 676:	0001                	nop
 678:	0200                	addi	s0,sp,256
 67a:	0801                	addi	a6,a6,0
 67c:	011c                	addi	a5,sp,128
 67e:	0000                	unimp
 680:	0202                	c.slli64	tp
 682:	9405                	srai	s0,s0,0x21
 684:	0001                	nop
 686:	0200                	addi	s0,sp,256
 688:	0702                	c.slli64	a4
 68a:	0134                	addi	a3,sp,136
 68c:	0000                	unimp
 68e:	0402                	c.slli64	s0
 690:	7205                	lui	tp,0xfffe1
 692:	0001                	nop
 694:	0300                	addi	s0,sp,384
 696:	01d8                	addi	a4,sp,196
 698:	0000                	unimp
 69a:	4f02                	lw	t5,0(sp)
 69c:	5419                	li	s0,-26
 69e:	0000                	unimp
 6a0:	0200                	addi	s0,sp,256
 6a2:	0704                	addi	s1,sp,896
 6a4:	0000015b          	0x15b
 6a8:	0802                	c.slli64	a6
 6aa:	6d05                	lui	s10,0x1
 6ac:	0001                	nop
 6ae:	0200                	addi	s0,sp,256
 6b0:	0708                	addi	a0,sp,896
 6b2:	0156                	slli	sp,sp,0x15
 6b4:	0000                	unimp
 6b6:	0404                	addi	s1,sp,512
 6b8:	6905                	lui	s2,0x1
 6ba:	746e                	flw	fs0,248(sp)
 6bc:	0200                	addi	s0,sp,256
 6be:	0704                	addi	s1,sp,896
 6c0:	0160                	addi	s0,sp,140
 6c2:	0000                	unimp
 6c4:	0001da03          	lhu	s4,0(gp) # 1000998 <__global_pointer$>
 6c8:	0300                	addi	s0,sp,384
 6ca:	1430                	addi	a2,sp,552
 6cc:	0048                	addi	a0,sp,4
 6ce:	0000                	unimp
 6d0:	0905                	addi	s2,s2,1
 6d2:	01000003          	lb	zero,16(zero) # 10 <_start+0x10>
 6d6:	0a14                	addi	a3,sp,272
 6d8:	00000077          	0x77
 6dc:	0aa8                	addi	a0,sp,344
 6de:	0000                	unimp
 6e0:	0060                	addi	s0,sp,12
 6e2:	0000                	unimp
 6e4:	9c01                	0x9c01
 6e6:	3806                	fld	fa6,96(sp)
 6e8:	01000003          	lb	zero,16(zero) # 10 <_start+0x10>
 6ec:	0a10                	addi	a2,sp,272
 6ee:	00000077          	0x77
 6f2:	0a80                	addi	s0,sp,336
 6f4:	0000                	unimp
 6f6:	0028                	addi	a0,sp,8
 6f8:	0000                	unimp
 6fa:	9c01                	0x9c01
 6fc:	00032007          	flw	ft0,0(t1)
 700:	0100                	addi	s0,sp,128
 702:	0a44060b          	0xa44060b
 706:	0000                	unimp
 708:	003c                	addi	a5,sp,8
 70a:	0000                	unimp
 70c:	9c01                	0x9c01
 70e:	00d5                	addi	ra,ra,21
 710:	0000                	unimp
 712:	4608                	lw	a0,8(a2)
 714:	01000003          	lb	zero,16(zero) # 10 <_start+0x10>
 718:	0077270b          	0x77270b
 71c:	0000                	unimp
 71e:	9102                	jalr	sp
 720:	006c                	addi	a1,sp,12
 722:	eb09                	bnez	a4,734 <xvprintf+0x3e8>
 724:	0002                	c.slli64	zero
 726:	0100                	addi	s0,sp,128
 728:	0a180607          	0xa180607
 72c:	0000                	unimp
 72e:	002c                	addi	a1,sp,8
 730:	0000                	unimp
 732:	9c01                	0x9c01
 734:	d406                	sw	ra,40(sp)
 736:	0002                	c.slli64	zero
 738:	0100                	addi	s0,sp,128
 73a:	00770a03          	lb	s4,7(a4) # b007 <__stack_size+0x9007>
 73e:	0000                	unimp
 740:	09f0                	addi	a2,sp,220
 742:	0000                	unimp
 744:	0028                	addi	a0,sp,8
 746:	0000                	unimp
 748:	9c01                	0x9c01
 74a:	e400                	fsw	fs0,8(s0)
 74c:	0000                	unimp
 74e:	0400                	addi	s0,sp,512
 750:	6900                	flw	fs0,16(a0)
 752:	0004                	0x4
 754:	0400                	addi	s0,sp,512
 756:	8c01                	sub	s0,s0,s0
 758:	0000                	unimp
 75a:	0c00                	addi	s0,sp,528
 75c:	0350                	addi	a2,sp,388
 75e:	0000                	unimp
 760:	000c                	0xc
 762:	0000                	unimp
 764:	00b8                	addi	a4,sp,72
 766:	0000                	unimp
 768:	0000                	unimp
 76a:	0000                	unimp
 76c:	0fb8                	addi	a4,sp,984
 76e:	0000                	unimp
 770:	0102                	c.slli64	sp
 772:	1e06                	slli	t3,t3,0x21
 774:	0001                	nop
 776:	0300                	addi	s0,sp,384
 778:	019e                	slli	gp,gp,0x7
 77a:	0000                	unimp
 77c:	2b02                	fld	fs6,0(sp)
 77e:	3818                	fld	fa4,48(s0)
 780:	0000                	unimp
 782:	0200                	addi	s0,sp,256
 784:	0801                	addi	a6,a6,0
 786:	011c                	addi	a5,sp,128
 788:	0000                	unimp
 78a:	0202                	c.slli64	tp
 78c:	9405                	srai	s0,s0,0x21
 78e:	0001                	nop
 790:	0200                	addi	s0,sp,256
 792:	0702                	c.slli64	a4
 794:	0134                	addi	a3,sp,136
 796:	0000                	unimp
 798:	0402                	c.slli64	s0
 79a:	7205                	lui	tp,0xfffe1
 79c:	0001                	nop
 79e:	0300                	addi	s0,sp,384
 7a0:	01d8                	addi	a4,sp,196
 7a2:	0000                	unimp
 7a4:	4f02                	lw	t5,0(sp)
 7a6:	6019                	c.lui	zero,0x6
 7a8:	0000                	unimp
 7aa:	0200                	addi	s0,sp,256
 7ac:	0704                	addi	s1,sp,896
 7ae:	0000015b          	0x15b
 7b2:	0802                	c.slli64	a6
 7b4:	6d05                	lui	s10,0x1
 7b6:	0001                	nop
 7b8:	0200                	addi	s0,sp,256
 7ba:	0708                	addi	a0,sp,896
 7bc:	0156                	slli	sp,sp,0x15
 7be:	0000                	unimp
 7c0:	0404                	addi	s1,sp,512
 7c2:	6905                	lui	s2,0x1
 7c4:	746e                	flw	fs0,248(sp)
 7c6:	0200                	addi	s0,sp,256
 7c8:	0704                	addi	s1,sp,896
 7ca:	0160                	addi	s0,sp,140
 7cc:	0000                	unimp
 7ce:	0001a003          	lw	zero,0(gp) # 1000998 <__global_pointer$>
 7d2:	0300                	addi	s0,sp,384
 7d4:	1318                	addi	a4,sp,416
 7d6:	002c                	addi	a1,sp,8
 7d8:	0000                	unimp
 7da:	0001da03          	lhu	s4,0(gp) # 1000998 <__global_pointer$>
 7de:	0300                	addi	s0,sp,384
 7e0:	1430                	addi	a2,sp,552
 7e2:	0054                	addi	a3,sp,4
 7e4:	0000                	unimp
 7e6:	5d05                	li	s10,-31
 7e8:	01000003          	lb	zero,16(zero) # 10 <_start+0x10>
 7ec:	00830903          	lb	s2,8(t1)
 7f0:	0000                	unimp
 7f2:	0305                	addi	t1,t1,1
 7f4:	0198                	addi	a4,sp,192
 7f6:	0100                	addi	s0,sp,128
 7f8:	9205                	srli	a2,a2,0x21
 7fa:	01000003          	lb	zero,16(zero) # 10 <_start+0x10>
 7fe:	0904                	addi	s1,sp,144
 800:	00000083          	lb	ra,0(zero) # 0 <_start>
 804:	0305                	addi	t1,t1,1
 806:	0199                	addi	gp,gp,6
 808:	0100                	addi	s0,sp,128
 80a:	8306                	mv	t1,ra
 80c:	01000003          	lb	zero,16(zero) # 10 <_start+0x10>
 810:	0083090b          	0x83090b
 814:	0000                	unimp
 816:	0b4c                	addi	a1,sp,404
 818:	0000                	unimp
 81a:	0048                	addi	a0,sp,4
 81c:	0000                	unimp
 81e:	9c01                	0x9c01
 820:	00036e07          	0x36e07
 824:	0100                	addi	s0,sp,128
 826:	0606                	slli	a2,a2,0x1
 828:	0b08                	addi	a0,sp,400
 82a:	0000                	unimp
 82c:	0044                	addi	s1,sp,4
 82e:	0000                	unimp
 830:	9c01                	0x9c01
 832:	f700                	fsw	fs0,40(a4)
 834:	0002                	c.slli64	zero
 836:	0400                	addi	s0,sp,512
 838:	e700                	fsw	fs0,8(a4)
 83a:	0004                	0x4
 83c:	0400                	addi	s0,sp,512
 83e:	8c01                	sub	s0,s0,s0
 840:	0000                	unimp
 842:	0c00                	addi	s0,sp,528
 844:	041c                	addi	a5,sp,512
 846:	0000                	unimp
 848:	000c                	0xc
 84a:	0000                	unimp
 84c:	00d0                	addi	a2,sp,68
 84e:	0000                	unimp
 850:	0000                	unimp
 852:	0000                	unimp
 854:	10da                	slli	ra,ra,0x36
 856:	0000                	unimp
 858:	0102                	c.slli64	sp
 85a:	1e06                	slli	t3,t3,0x21
 85c:	0001                	nop
 85e:	0300                	addi	s0,sp,384
 860:	019e                	slli	gp,gp,0x7
 862:	0000                	unimp
 864:	2b02                	fld	fs6,0(sp)
 866:	3818                	fld	fa4,48(s0)
 868:	0000                	unimp
 86a:	0200                	addi	s0,sp,256
 86c:	0801                	addi	a6,a6,0
 86e:	011c                	addi	a5,sp,128
 870:	0000                	unimp
 872:	0202                	c.slli64	tp
 874:	9405                	srai	s0,s0,0x21
 876:	0001                	nop
 878:	0200                	addi	s0,sp,256
 87a:	0702                	c.slli64	a4
 87c:	0134                	addi	a3,sp,136
 87e:	0000                	unimp
 880:	0402                	c.slli64	s0
 882:	7205                	lui	tp,0xfffe1
 884:	0001                	nop
 886:	0300                	addi	s0,sp,384
 888:	01d8                	addi	a4,sp,196
 88a:	0000                	unimp
 88c:	4f02                	lw	t5,0(sp)
 88e:	6019                	c.lui	zero,0x6
 890:	0000                	unimp
 892:	0200                	addi	s0,sp,256
 894:	0704                	addi	s1,sp,896
 896:	0000015b          	0x15b
 89a:	0802                	c.slli64	a6
 89c:	6d05                	lui	s10,0x1
 89e:	0001                	nop
 8a0:	0200                	addi	s0,sp,256
 8a2:	0708                	addi	a0,sp,896
 8a4:	0156                	slli	sp,sp,0x15
 8a6:	0000                	unimp
 8a8:	0404                	addi	s1,sp,512
 8aa:	6905                	lui	s2,0x1
 8ac:	746e                	flw	fs0,248(sp)
 8ae:	0200                	addi	s0,sp,256
 8b0:	0704                	addi	s1,sp,896
 8b2:	0160                	addi	s0,sp,140
 8b4:	0000                	unimp
 8b6:	0001a003          	lw	zero,0(gp) # 1000998 <__global_pointer$>
 8ba:	0300                	addi	s0,sp,384
 8bc:	1318                	addi	a4,sp,416
 8be:	002c                	addi	a1,sp,8
 8c0:	0000                	unimp
 8c2:	0001da03          	lhu	s4,0(gp) # 1000998 <__global_pointer$>
 8c6:	0300                	addi	s0,sp,384
 8c8:	1430                	addi	a2,sp,552
 8ca:	0054                	addi	a3,sp,4
 8cc:	0000                	unimp
 8ce:	a605                	j	bee <digital_clock_init+0x5a>
 8d0:	0000                	unimp
 8d2:	0600                	addi	s0,sp,768
 8d4:	0038                	addi	a4,sp,8
 8d6:	0000                	unimp
 8d8:	0700                	addi	s0,sp,896
 8da:	014c                	addi	a1,sp,132
 8dc:	0000                	unimp
 8de:	0b05                	addi	s6,s6,1
 8e0:	0000b20f          	0xb20f
 8e4:	0800                	addi	s0,sp,16
 8e6:	9b04                	0x9b04
 8e8:	0000                	unimp
 8ea:	0900                	addi	s0,sp,144
 8ec:	00000077          	0x77
 8f0:	007c0407          	0x7c0407
 8f4:	0000                	unimp
 8f6:	0d04                	addi	s1,sp,656
 8f8:	dd06                	sw	ra,184(sp)
 8fa:	0000                	unimp
 8fc:	0a00                	addi	s0,sp,272
 8fe:	012a                	slli	sp,sp,0xa
 900:	0000                	unimp
 902:	0a00                	addi	s0,sp,272
 904:	00000083          	lb	ra,0(zero) # 0 <_start>
 908:	0a01                	addi	s4,s4,0
 90a:	0112                	slli	sp,sp,0x4
 90c:	0000                	unimp
 90e:	0002                	c.slli64	zero
 910:	0003ab0b          	0x3ab0b
 914:	0300                	addi	s0,sp,384
 916:	1304                	addi	s1,sp,416
 918:	1208                	addi	a0,sp,288
 91a:	0001                	nop
 91c:	0c00                	addi	s0,sp,528
 91e:	0000042f          	0x42f
 922:	1504                	addi	s1,sp,672
 924:	830d                	srli	a4,a4,0x3
 926:	0000                	unimp
 928:	0000                	unimp
 92a:	6d0d                	lui	s10,0x3
 92c:	6e69                	lui	t3,0x1a
 92e:	0400                	addi	s0,sp,512
 930:	0d16                	slli	s10,s10,0x5
 932:	00000083          	lb	ra,0(zero) # 0 <_start>
 936:	0d01                	addi	s10,s10,0
 938:	00636573          	csrrsi	a0,0x6,6
 93c:	1704                	addi	s1,sp,928
 93e:	830d                	srli	a4,a4,0x3
 940:	0000                	unimp
 942:	0200                	addi	s0,sp,256
 944:	0700                	addi	s0,sp,896
 946:	0186                	slli	gp,gp,0x1
 948:	0000                	unimp
 94a:	1a04                	addi	s1,sp,304
 94c:	b819                	j	162 <asynchronous_return+0x5a>
 94e:	0000                	unimp
 950:	0e00                	addi	s0,sp,784
 952:	0112                	slli	sp,sp,0x4
 954:	0000                	unimp
 956:	0301                	addi	t1,t1,0
 958:	0512                	slli	a0,a0,0x4
 95a:	0001b003          	0x1b003
 95e:	0f01                	addi	t5,t5,0
 960:	0404                	addi	s1,sp,512
 962:	0000                	unimp
 964:	0501                	addi	a0,a0,0
 966:	8f0a                	mv	t5,sp
 968:	0000                	unimp
 96a:	0500                	addi	s0,sp,640
 96c:	0001b803          	0x1b803
 970:	0f01                	addi	t5,t5,0
 972:	03b0                	addi	a2,sp,456
 974:	0000                	unimp
 976:	0601                	addi	a2,a2,0
 978:	8f0a                	mv	t5,sp
 97a:	0000                	unimp
 97c:	0500                	addi	s0,sp,640
 97e:	0001a803          	lw	a6,0(gp) # 1000998 <__global_pointer$>
 982:	0f01                	addi	t5,t5,0
 984:	0434                	addi	a3,sp,520
 986:	0000                	unimp
 988:	0701                	addi	a4,a4,0
 98a:	8f0a                	mv	t5,sp
 98c:	0000                	unimp
 98e:	0500                	addi	s0,sp,640
 990:	0001ac03          	lw	s8,0(gp) # 1000998 <__global_pointer$>
 994:	0f01                	addi	t5,t5,0
 996:	0492                	slli	s1,s1,0x4
 998:	0000                	unimp
 99a:	0801                	addi	a6,a6,0
 99c:	8f0a                	mv	t5,sp
 99e:	0000                	unimp
 9a0:	0500                	addi	s0,sp,640
 9a2:	0001b403          	0x1b403
 9a6:	0f01                	addi	t5,t5,0
 9a8:	03be                	slli	t2,t2,0xf
 9aa:	0000                	unimp
 9ac:	0a01                	addi	s4,s4,0
 9ae:	8606                	mv	a2,ra
 9b0:	0001                	nop
 9b2:	0500                	addi	s0,sp,640
 9b4:	0001bc03          	0x1bc03
 9b8:	0201                	addi	tp,tp,0
 9ba:	0201                	addi	tp,tp,0
 9bc:	04c8                	addi	a0,sp,580
 9be:	0000                	unimp
 9c0:	0004560f          	0x4560f
 9c4:	0100                	addi	s0,sp,128
 9c6:	0186060b          	0x186060b
 9ca:	0000                	unimp
 9cc:	0305                	addi	t1,t1,1
 9ce:	01bd                	addi	gp,gp,15
 9d0:	0100                	addi	s0,sp,128
 9d2:	8010                	0x8010
 9d4:	0004                	0x4
 9d6:	0100                	addi	s0,sp,128
 9d8:	00dd0da7          	0xdd0da7
 9dc:	0000                	unimp
 9de:	1394                	addi	a3,sp,480
 9e0:	0000                	unimp
 9e2:	00f0                	addi	a2,sp,76
 9e4:	0000                	unimp
 9e6:	9c01                	0x9c01
 9e8:	01d8                	addi	a4,sp,196
 9ea:	0000                	unimp
 9ec:	3a11                	jal	300 <xputs+0x4>
 9ee:	0004                	0x4
 9f0:	0100                	addi	s0,sp,128
 9f2:	008f28a7          	fsw	fs0,17(t5)
 9f6:	0000                	unimp
 9f8:	9102                	jalr	sp
 9fa:	125c                	addi	a5,sp,292
 9fc:	00000477          	0x477
 a00:	a801                	j	a10 <get_sec_clock_run_time+0x20>
 a02:	dd11                	beqz	a0,91e <set_scan_seg_num+0x82>
 a04:	0000                	unimp
 a06:	0200                	addi	s0,sp,256
 a08:	6891                	lui	a7,0x4
 a0a:	1300                	addi	s0,sp,416
 a0c:	04ba                	slli	s1,s1,0xe
 a0e:	0000                	unimp
 a10:	5201                	li	tp,-32
 a12:	4806                	lw	a6,64(sp)
 a14:	0010                	0x10
 a16:	4c00                	lw	s0,24(s0)
 a18:	01000003          	lb	zero,16(zero) # 10 <_start+0x10>
 a1c:	0d9c                	addi	a5,sp,720
 a1e:	0002                	c.slli64	zero
 a20:	1100                	addi	s0,sp,160
 a22:	0188                	addi	a0,sp,192
 a24:	0000                	unimp
 a26:	5201                	li	tp,-32
 a28:	b825                	j	260 <uart_init+0x18>
 a2a:	0000                	unimp
 a2c:	0200                	addi	s0,sp,256
 a2e:	5c91                	li	s9,-28
 a30:	d712                	sw	tp,172(sp)
 a32:	01000003          	lb	zero,16(zero) # 10 <_start+0x10>
 a36:	00830d53          	fadd.s	fs10,ft6,fs0,rne
 a3a:	0000                	unimp
 a3c:	9102                	jalr	sp
 a3e:	a614006f          	j	fff4149e <__freertos_irq_stack_top+0xfef3d49e>
 a42:	0004                	0x4
 a44:	0100                	addi	s0,sp,128
 a46:	0646                	slli	a2,a2,0x11
 a48:	0f14                	addi	a3,sp,912
 a4a:	0000                	unimp
 a4c:	0134                	addi	a3,sp,136
 a4e:	0000                	unimp
 a50:	9c01                	0x9c01
 a52:	0242                	slli	tp,tp,0x10
 a54:	0000                	unimp
 a56:	1212                	slli	tp,tp,0x24
 a58:	0004                	0x4
 a5a:	0100                	addi	s0,sp,128
 a5c:	00dd1147          	fmsub.s	ft2,fs10,fa3,ft0,rtz
 a60:	0000                	unimp
 a62:	9102                	jalr	sp
 a64:	126c                	addi	a1,sp,300
 a66:	000003cb          	fnmsub.s	ft7,ft0,ft0,ft0,rne
 a6a:	4e01                	li	t3,0
 a6c:	830d                	srli	a4,a4,0x3
 a6e:	0000                	unimp
 a70:	0200                	addi	s0,sp,256
 a72:	6f91                	lui	t6,0x4
 a74:	1400                	addi	s0,sp,544
 a76:	0444                	addi	s1,sp,516
 a78:	0000                	unimp
 a7a:	3a01                	jal	38a <xvprintf+0x3e>
 a7c:	e006                	fsw	ft1,0(sp)
 a7e:	000d                	c.nop	3
 a80:	3400                	fld	fs0,40(s0)
 a82:	0001                	nop
 a84:	0100                	addi	s0,sp,128
 a86:	779c                	flw	fa5,40(a5)
 a88:	0002                	c.slli64	zero
 a8a:	1200                	addi	s0,sp,288
 a8c:	0412                	slli	s0,s0,0x4
 a8e:	0000                	unimp
 a90:	3b01                	jal	7a0 <xvprintf+0x454>
 a92:	dd11                	beqz	a0,9ae <set_scan_seg_state+0x6a>
 a94:	0000                	unimp
 a96:	0200                	addi	s0,sp,256
 a98:	6c91                	lui	s9,0x4
 a9a:	cb12                	sw	tp,148(sp)
 a9c:	01000003          	lb	zero,16(zero) # 10 <_start+0x10>
 aa0:	0d42                	slli	s10,s10,0x10
 aa2:	00000083          	lb	ra,0(zero) # 0 <_start>
 aa6:	9102                	jalr	sp
 aa8:	f214006f          	j	fff419c8 <__freertos_irq_stack_top+0xfef3d9c8>
 aac:	01000003          	lb	zero,16(zero) # 10 <_start+0x10>
 ab0:	062e                	slli	a2,a2,0xb
 ab2:	0cac                	addi	a1,sp,600
 ab4:	0000                	unimp
 ab6:	0134                	addi	a3,sp,136
 ab8:	0000                	unimp
 aba:	9c01                	0x9c01
 abc:	02ac                	addi	a1,sp,328
 abe:	0000                	unimp
 ac0:	1212                	slli	tp,tp,0x24
 ac2:	0004                	0x4
 ac4:	0100                	addi	s0,sp,128
 ac6:	00dd112f          	0xdd112f
 aca:	0000                	unimp
 acc:	9102                	jalr	sp
 ace:	126c                	addi	a1,sp,300
 ad0:	000003cb          	fnmsub.s	ft7,ft0,ft0,ft0,rne
 ad4:	3601                	jal	5d4 <xvprintf+0x288>
 ad6:	830d                	srli	a4,a4,0x3
 ad8:	0000                	unimp
 ada:	0200                	addi	s0,sp,256
 adc:	6f91                	lui	t6,0x4
 ade:	1500                	addi	s0,sp,672
 ae0:	03e6                	slli	t2,t2,0x19
 ae2:	0000                	unimp
 ae4:	2501                	jal	10e4 <button_action+0x9c>
 ae6:	5806                	lw	a6,96(sp)
 ae8:	000c                	0xc
 aea:	5400                	lw	s0,40(s0)
 aec:	0000                	unimp
 aee:	0100                	addi	s0,sp,128
 af0:	159c                	addi	a5,sp,736
 af2:	000003a3          	sb	zero,7(zero) # 7 <_start+0x7>
 af6:	2101                	jal	ef6 <seg_show_tar_time+0x116>
 af8:	2806                	fld	fa6,64(sp)
 afa:	000c                	0xc
 afc:	3000                	fld	fs0,32(s0)
 afe:	0000                	unimp
 b00:	0100                	addi	s0,sp,128
 b02:	169c                	addi	a5,sp,864
 b04:	0464                	addi	s1,sp,524
 b06:	0000                	unimp
 b08:	0d01                	addi	s10,s10,0
 b0a:	9406                	add	s0,s0,ra
 b0c:	9400000b          	0x9400000b
 b10:	0000                	unimp
 b12:	0100                	addi	s0,sp,128
 b14:	179c                	addi	a5,sp,992
 b16:	0ba8                	addi	a0,sp,472
 b18:	0000                	unimp
 b1a:	0048                	addi	a0,sp,4
 b1c:	0000                	unimp
 b1e:	6918                	flw	fa4,16(a0)
 b20:	0100                	addi	s0,sp,128
 b22:	0d12                	slli	s10,s10,0x4
 b24:	0075                	c.nop	29
 b26:	0000                	unimp
 b28:	9102                	jalr	sp
 b2a:	006c                	addi	a1,sp,12
	...

Disassembly of section .debug_abbrev:

00000000 <.debug_abbrev>:
   0:	1101                	addi	sp,sp,-32
   2:	1000                	addi	s0,sp,32
   4:	1106                	slli	sp,sp,0x21
   6:	1201                	addi	tp,tp,-32
   8:	0301                	addi	t1,t1,0
   a:	1b0e                	slli	s6,s6,0x23
   c:	250e                	fld	fa0,192(sp)
   e:	130e                	slli	t1,t1,0x23
  10:	0005                	c.nop	1
  12:	0000                	unimp
  14:	1101                	addi	sp,sp,-32
  16:	1000                	addi	s0,sp,32
  18:	1106                	slli	sp,sp,0x21
  1a:	1201                	addi	tp,tp,-32
  1c:	0301                	addi	t1,t1,0
  1e:	1b0e                	slli	s6,s6,0x23
  20:	250e                	fld	fa0,192(sp)
  22:	130e                	slli	t1,t1,0x23
  24:	0005                	c.nop	1
  26:	0000                	unimp
  28:	1101                	addi	sp,sp,-32
  2a:	2501                	jal	62a <xvprintf+0x2de>
  2c:	130e                	slli	t1,t1,0x23
  2e:	1b0e030b          	0x1b0e030b
  32:	550e                	lw	a0,224(sp)
  34:	10011117          	auipc	sp,0x10011
  38:	02000017          	auipc	zero,0x2000
  3c:	0024                	addi	s1,sp,8
  3e:	0b3e0b0b          	0xb3e0b0b
  42:	00000e03          	lb	t3,0(zero) # 0 <_start>
  46:	0b002403          	lw	s0,176(zero) # b0 <trap_entry+0x48>
  4a:	030b3e0b          	0x30b3e0b
  4e:	0008                	0x8
  50:	0400                	addi	s0,sp,512
  52:	0115                	addi	sp,sp,5
  54:	13011927          	0x13011927
  58:	0000                	unimp
  5a:	0505                	addi	a0,a0,1
  5c:	4900                	lw	s0,16(a0)
  5e:	06000013          	li	zero,96
  62:	0034                	addi	a3,sp,8
  64:	0b3a0e03          	lb	t3,179(s4)
  68:	0b390b3b          	0xb390b3b
  6c:	1349                	addi	t1,t1,-14
  6e:	193c193f 0f070000 	0xf070000193c193f
  76:	0b00                	addi	s0,sp,400
  78:	0013490b          	0x13490b
  7c:	0800                	addi	s0,sp,16
  7e:	0104                	addi	s1,sp,128
  80:	0b3e0e03          	lb	t3,179(t3) # 1a0b3 <__stack_size+0x180b3>
  84:	13490b0b          	0x13490b0b
  88:	0b3a                	slli	s6,s6,0xe
  8a:	0b390b3b          	0xb390b3b
  8e:	1301                	addi	t1,t1,-32
  90:	0000                	unimp
  92:	2809                	jal	a4 <trap_entry+0x3c>
  94:	0300                	addi	s0,sp,384
  96:	1c0e                	slli	s8,s8,0x23
  98:	0a00000b          	0xa00000b
  9c:	002e                	c.slli	zero,0xb
  9e:	0e03193f 0b3b0b3a 	0xb3b0b3a0e03193f
  a6:	0b39                	addi	s6,s6,14
  a8:	1349                	addi	t1,t1,-14
  aa:	0111                	addi	sp,sp,4
  ac:	0612                	slli	a2,a2,0x4
  ae:	1840                	addi	s0,sp,52
  b0:	4296                	lw	t0,68(sp)
  b2:	0019                	c.nop	6
  b4:	0000                	unimp
  b6:	1101                	addi	sp,sp,-32
  b8:	2501                	jal	6b8 <xvprintf+0x36c>
  ba:	130e                	slli	t1,t1,0x23
  bc:	1b0e030b          	0x1b0e030b
  c0:	550e                	lw	a0,224(sp)
  c2:	10011117          	auipc	sp,0x10011
  c6:	02000017          	auipc	zero,0x2000
  ca:	0024                	addi	s1,sp,8
  cc:	0b3e0b0b          	0xb3e0b0b
  d0:	00000e03          	lb	t3,0(zero) # 0 <_start>
  d4:	03001603          	lh	a2,48(zero) # 30 <_start+0x30>
  d8:	3a0e                	fld	fs4,224(sp)
  da:	390b3b0b          	0x390b3b0b
  de:	0013490b          	0x13490b
  e2:	0400                	addi	s0,sp,512
  e4:	0024                	addi	s1,sp,8
  e6:	0b3e0b0b          	0xb3e0b0b
  ea:	00000803          	lb	a6,0(zero) # 0 <_start>
  ee:	1505                	addi	a0,a0,-31
  f0:	2701                	jal	7f0 <xprintf+0xc>
  f2:	0119                	addi	sp,sp,6
  f4:	06000013          	li	zero,96
  f8:	0005                	c.nop	1
  fa:	1349                	addi	t1,t1,-14
  fc:	0000                	unimp
  fe:	03003407          	fld	fs0,48(zero) # 30 <_start+0x30>
 102:	3a0e                	fld	fs4,224(sp)
 104:	390b3b0b          	0x390b3b0b
 108:	3f13490b          	0x3f13490b
 10c:	3c19                	jal	fffffb22 <__freertos_irq_stack_top+0xfeffbb22>
 10e:	0019                	c.nop	6
 110:	0800                	addi	s0,sp,16
 112:	0b0b000f          	0xb0b000f
 116:	1349                	addi	t1,t1,-14
 118:	0000                	unimp
 11a:	2e09                	jal	42c <xvprintf+0xe0>
 11c:	3f00                	fld	fs0,56(a4)
 11e:	0319                	addi	t1,t1,6
 120:	3a0e                	fld	fs4,224(sp)
 122:	390b3b0b          	0x390b3b0b
 126:	1201110b          	0x1201110b
 12a:	4006                	0x4006
 12c:	9718                	0x9718
 12e:	1942                	slli	s2,s2,0x30
 130:	0000                	unimp
 132:	2e0a                	fld	ft8,128(sp)
 134:	3f01                	jal	44 <_start+0x44>
 136:	0319                	addi	t1,t1,6
 138:	3a0e                	fld	fs4,224(sp)
 13a:	390b3b0b          	0x390b3b0b
 13e:	4919270b          	0x4919270b
 142:	12011113          	0x12011113
 146:	4006                	0x4006
 148:	9718                	0x9718
 14a:	1942                	slli	s2,s2,0x30
 14c:	1301                	addi	t1,t1,-32
 14e:	0000                	unimp
 150:	0300050b          	0x300050b
 154:	3a0e                	fld	fs4,224(sp)
 156:	390b3b0b          	0x390b3b0b
 15a:	0213490b          	0x213490b
 15e:	0018                	0x18
 160:	0c00                	addi	s0,sp,528
 162:	0034                	addi	a3,sp,8
 164:	0b3a0e03          	lb	t3,179(s4)
 168:	0b390b3b          	0xb390b3b
 16c:	1349                	addi	t1,t1,-14
 16e:	1802                	slli	a6,a6,0x20
 170:	0000                	unimp
 172:	2e0d                	jal	4a4 <xvprintf+0x158>
 174:	3f01                	jal	84 <trap_entry+0x1c>
 176:	0319                	addi	t1,t1,6
 178:	3a0e                	fld	fs4,224(sp)
 17a:	390b3b0b          	0x390b3b0b
 17e:	1119270b          	0x1119270b
 182:	1201                	addi	tp,tp,-32
 184:	4006                	0x4006
 186:	9718                	0x9718
 188:	1942                	slli	s2,s2,0x30
 18a:	0000                	unimp
 18c:	050e                	slli	a0,a0,0x3
 18e:	0300                	addi	s0,sp,384
 190:	3a08                	fld	fa0,48(a2)
 192:	390b3b0b          	0x390b3b0b
 196:	0213490b          	0x213490b
 19a:	0018                	0x18
 19c:	0000                	unimp
 19e:	1101                	addi	sp,sp,-32
 1a0:	2501                	jal	7a0 <xvprintf+0x454>
 1a2:	130e                	slli	t1,t1,0x23
 1a4:	1b0e030b          	0x1b0e030b
 1a8:	550e                	lw	a0,224(sp)
 1aa:	10011117          	auipc	sp,0x10011
 1ae:	02000017          	auipc	zero,0x2000
 1b2:	0115                	addi	sp,sp,5
 1b4:	13011927          	0x13011927
 1b8:	0000                	unimp
 1ba:	49000503          	lb	a0,1168(zero) # 490 <xvprintf+0x144>
 1be:	04000013          	li	zero,64
 1c2:	0024                	addi	s1,sp,8
 1c4:	0b3e0b0b          	0xb3e0b0b
 1c8:	00000e03          	lb	t3,0(zero) # 0 <_start>
 1cc:	3405                	jal	fffffbec <__freertos_irq_stack_top+0xfeffbbec>
 1ce:	0300                	addi	s0,sp,384
 1d0:	3a0e                	fld	fs4,224(sp)
 1d2:	390b3b0b          	0x390b3b0b
 1d6:	3f13490b          	0x3f13490b
 1da:	3c19                	jal	fffffbf0 <__freertos_irq_stack_top+0xfeffbbf0>
 1dc:	0019                	c.nop	6
 1de:	0600                	addi	s0,sp,768
 1e0:	0b0b000f          	0xb0b000f
 1e4:	1349                	addi	t1,t1,-14
 1e6:	0000                	unimp
 1e8:	03001607          	0x3001607
 1ec:	3a0e                	fld	fs4,224(sp)
 1ee:	390b3b0b          	0x390b3b0b
 1f2:	0013490b          	0x13490b
 1f6:	0800                	addi	s0,sp,16
 1f8:	0b0b000f          	0xb0b000f
 1fc:	00000e03          	lb	t3,0(zero) # 0 <_start>
 200:	3409                	jal	fffffc02 <__freertos_irq_stack_top+0xfeffbc02>
 202:	4700                	lw	s0,8(a4)
 204:	3b0b3a13          	sltiu	s4,s6,944
 208:	020b390b          	0x20b390b
 20c:	0018                	0x18
 20e:	0a00                	addi	s0,sp,272
 210:	0034                	addi	a3,sp,8
 212:	0b3a0e03          	lb	t3,179(s4)
 216:	0b390b3b          	0xb390b3b
 21a:	1349                	addi	t1,t1,-14
 21c:	1802                	slli	a6,a6,0x20
 21e:	0000                	unimp
 220:	4900260b          	0x4900260b
 224:	0c000013          	li	zero,192
 228:	012e                	slli	sp,sp,0xb
 22a:	0e03193f 0b3b0b3a 	0xb3b0b3a0e03193f
 232:	0b39                	addi	s6,s6,14
 234:	01111927          	0x1111927
 238:	0612                	slli	a2,a2,0x4
 23a:	1840                	addi	s0,sp,52
 23c:	4296                	lw	t0,68(sp)
 23e:	0119                	addi	sp,sp,6
 240:	0d000013          	li	zero,208
 244:	0005                	c.nop	1
 246:	0b3a0803          	lb	a6,179(s4)
 24a:	0b390b3b          	0xb390b3b
 24e:	1349                	addi	t1,t1,-14
 250:	1802                	slli	a6,a6,0x20
 252:	0000                	unimp
 254:	180e                	slli	a6,a6,0x23
 256:	0000                	unimp
 258:	0f00                	addi	s0,sp,912
 25a:	0034                	addi	a3,sp,8
 25c:	0b3a0803          	lb	a6,179(s4)
 260:	0b390b3b          	0xb390b3b
 264:	1349                	addi	t1,t1,-14
 266:	1802                	slli	a6,a6,0x20
 268:	0000                	unimp
 26a:	2e10                	fld	fa2,24(a2)
 26c:	0301                	addi	t1,t1,0
 26e:	3a0e                	fld	fs4,224(sp)
 270:	390b3b0b          	0x390b3b0b
 274:	1119270b          	0x1119270b
 278:	1201                	addi	tp,tp,-32
 27a:	4006                	0x4006
 27c:	9618                	0x9618
 27e:	1942                	slli	s2,s2,0x30
 280:	1301                	addi	t1,t1,-32
 282:	0000                	unimp
 284:	0111                	addi	sp,sp,4
 286:	4901                	li	s2,0
 288:	00130113          	addi	sp,t1,1
 28c:	1200                	addi	s0,sp,288
 28e:	0021                	c.nop	8
 290:	1349                	addi	t1,t1,-14
 292:	00000b2f          	0xb2f
 296:	3f012e13          	slti	t3,sp,1008
 29a:	0319                	addi	t1,t1,6
 29c:	3a0e                	fld	fs4,224(sp)
 29e:	390b3b0b          	0x390b3b0b
 2a2:	1119270b          	0x1119270b
 2a6:	1201                	addi	tp,tp,-32
 2a8:	4006                	0x4006
 2aa:	9618                	0x9618
 2ac:	1942                	slli	s2,s2,0x30
 2ae:	0000                	unimp
 2b0:	0100                	addi	s0,sp,128
 2b2:	0111                	addi	sp,sp,4
 2b4:	0e25                	addi	t3,t3,9
 2b6:	0e030b13          	addi	s6,t1,224
 2ba:	17550e1b          	0x17550e1b
 2be:	0111                	addi	sp,sp,4
 2c0:	1710                	addi	a2,sp,928
 2c2:	0000                	unimp
 2c4:	2402                	fld	fs0,0(sp)
 2c6:	0b00                	addi	s0,sp,400
 2c8:	030b3e0b          	0x30b3e0b
 2cc:	000e                	c.slli	zero,0x3
 2ce:	0300                	addi	s0,sp,384
 2d0:	0016                	c.slli	zero,0x5
 2d2:	0b3a0e03          	lb	t3,179(s4)
 2d6:	0b390b3b          	0xb390b3b
 2da:	1349                	addi	t1,t1,-14
 2dc:	0000                	unimp
 2de:	2404                	fld	fs1,8(s0)
 2e0:	0b00                	addi	s0,sp,400
 2e2:	030b3e0b          	0x30b3e0b
 2e6:	0008                	0x8
 2e8:	0500                	addi	s0,sp,640
 2ea:	012e                	slli	sp,sp,0xb
 2ec:	0e03193f 0b3b0b3a 	0xb3b0b3a0e03193f
 2f4:	0b39                	addi	s6,s6,14
 2f6:	01111927          	0x1111927
 2fa:	0612                	slli	a2,a2,0x4
 2fc:	1840                	addi	s0,sp,52
 2fe:	00194297          	auipc	t0,0x194
 302:	0600                	addi	s0,sp,768
 304:	0005                	c.nop	1
 306:	0b3a0e03          	lb	t3,179(s4)
 30a:	0b390b3b          	0xb390b3b
 30e:	1349                	addi	t1,t1,-14
 310:	1802                	slli	a6,a6,0x20
 312:	0000                	unimp
 314:	0100                	addi	s0,sp,128
 316:	0111                	addi	sp,sp,4
 318:	0e25                	addi	t3,t3,9
 31a:	0e030b13          	addi	s6,t1,224
 31e:	17550e1b          	0x17550e1b
 322:	0111                	addi	sp,sp,4
 324:	1710                	addi	a2,sp,928
 326:	0000                	unimp
 328:	2402                	fld	fs0,0(sp)
 32a:	0b00                	addi	s0,sp,400
 32c:	030b3e0b          	0x30b3e0b
 330:	000e                	c.slli	zero,0x3
 332:	0300                	addi	s0,sp,384
 334:	0016                	c.slli	zero,0x5
 336:	0b3a0e03          	lb	t3,179(s4)
 33a:	0b390b3b          	0xb390b3b
 33e:	1349                	addi	t1,t1,-14
 340:	0000                	unimp
 342:	2404                	fld	fs1,8(s0)
 344:	0b00                	addi	s0,sp,400
 346:	030b3e0b          	0x30b3e0b
 34a:	0008                	0x8
 34c:	0500                	addi	s0,sp,640
 34e:	012e                	slli	sp,sp,0xb
 350:	0e03193f 0b3b0b3a 	0xb3b0b3a0e03193f
 358:	0b39                	addi	s6,s6,14
 35a:	01111927          	0x1111927
 35e:	0612                	slli	a2,a2,0x4
 360:	1840                	addi	s0,sp,52
 362:	01194297          	auipc	t0,0x1194
 366:	06000013          	li	zero,96
 36a:	0005                	c.nop	1
 36c:	0b3a0e03          	lb	t3,179(s4)
 370:	0b390b3b          	0xb390b3b
 374:	1349                	addi	t1,t1,-14
 376:	1802                	slli	a6,a6,0x20
 378:	0000                	unimp
 37a:	03003407          	fld	fs0,48(zero) # 30 <_start+0x30>
 37e:	3a0e                	fld	fs4,224(sp)
 380:	390b3b0b          	0x390b3b0b
 384:	0213490b          	0x213490b
 388:	0018                	0x18
 38a:	0800                	addi	s0,sp,16
 38c:	0005                	c.nop	1
 38e:	0b3a0803          	lb	a6,179(s4)
 392:	0b390b3b          	0xb390b3b
 396:	1349                	addi	t1,t1,-14
 398:	1802                	slli	a6,a6,0x20
 39a:	0000                	unimp
 39c:	2e09                	jal	6ae <xvprintf+0x362>
 39e:	3f01                	jal	2ae <xputc+0x32>
 3a0:	0319                	addi	t1,t1,6
 3a2:	3a0e                	fld	fs4,224(sp)
 3a4:	390b3b0b          	0x390b3b0b
 3a8:	1119270b          	0x1119270b
 3ac:	1201                	addi	tp,tp,-32
 3ae:	4006                	0x4006
 3b0:	9718                	0x9718
 3b2:	1942                	slli	s2,s2,0x30
 3b4:	0000                	unimp
 3b6:	0100                	addi	s0,sp,128
 3b8:	0111                	addi	sp,sp,4
 3ba:	0e25                	addi	t3,t3,9
 3bc:	0e030b13          	addi	s6,t1,224
 3c0:	17550e1b          	0x17550e1b
 3c4:	0111                	addi	sp,sp,4
 3c6:	1710                	addi	a2,sp,928
 3c8:	0000                	unimp
 3ca:	2402                	fld	fs0,0(sp)
 3cc:	0b00                	addi	s0,sp,400
 3ce:	030b3e0b          	0x30b3e0b
 3d2:	000e                	c.slli	zero,0x3
 3d4:	0300                	addi	s0,sp,384
 3d6:	0016                	c.slli	zero,0x5
 3d8:	0b3a0e03          	lb	t3,179(s4)
 3dc:	0b390b3b          	0xb390b3b
 3e0:	1349                	addi	t1,t1,-14
 3e2:	0000                	unimp
 3e4:	2404                	fld	fs1,8(s0)
 3e6:	0b00                	addi	s0,sp,400
 3e8:	030b3e0b          	0x30b3e0b
 3ec:	0008                	0x8
 3ee:	0500                	addi	s0,sp,640
 3f0:	002e                	c.slli	zero,0xb
 3f2:	0e03193f 0b3b0b3a 	0xb3b0b3a0e03193f
 3fa:	0b39                	addi	s6,s6,14
 3fc:	1349                	addi	t1,t1,-14
 3fe:	0111                	addi	sp,sp,4
 400:	0612                	slli	a2,a2,0x4
 402:	1840                	addi	s0,sp,52
 404:	4296                	lw	t0,68(sp)
 406:	0019                	c.nop	6
 408:	0600                	addi	s0,sp,768
 40a:	002e                	c.slli	zero,0xb
 40c:	0e03193f 0b3b0b3a 	0xb3b0b3a0e03193f
 414:	0b39                	addi	s6,s6,14
 416:	1349                	addi	t1,t1,-14
 418:	0111                	addi	sp,sp,4
 41a:	0612                	slli	a2,a2,0x4
 41c:	1840                	addi	s0,sp,52
 41e:	00194297          	auipc	t0,0x194
 422:	0700                	addi	s0,sp,896
 424:	012e                	slli	sp,sp,0xb
 426:	0e03193f 0b3b0b3a 	0xb3b0b3a0e03193f
 42e:	0b39                	addi	s6,s6,14
 430:	01111927          	0x1111927
 434:	0612                	slli	a2,a2,0x4
 436:	1840                	addi	s0,sp,52
 438:	4296                	lw	t0,68(sp)
 43a:	0119                	addi	sp,sp,6
 43c:	08000013          	li	zero,128
 440:	0005                	c.nop	1
 442:	0b3a0e03          	lb	t3,179(s4)
 446:	0b390b3b          	0xb390b3b
 44a:	1349                	addi	t1,t1,-14
 44c:	1802                	slli	a6,a6,0x20
 44e:	0000                	unimp
 450:	2e09                	jal	762 <xvprintf+0x416>
 452:	3f00                	fld	fs0,56(a4)
 454:	0319                	addi	t1,t1,6
 456:	3a0e                	fld	fs4,224(sp)
 458:	390b3b0b          	0x390b3b0b
 45c:	1201110b          	0x1201110b
 460:	4006                	0x4006
 462:	9718                	0x9718
 464:	1942                	slli	s2,s2,0x30
 466:	0000                	unimp
 468:	0100                	addi	s0,sp,128
 46a:	0111                	addi	sp,sp,4
 46c:	0e25                	addi	t3,t3,9
 46e:	0e030b13          	addi	s6,t1,224
 472:	17550e1b          	0x17550e1b
 476:	0111                	addi	sp,sp,4
 478:	1710                	addi	a2,sp,928
 47a:	0000                	unimp
 47c:	2402                	fld	fs0,0(sp)
 47e:	0b00                	addi	s0,sp,400
 480:	030b3e0b          	0x30b3e0b
 484:	000e                	c.slli	zero,0x3
 486:	0300                	addi	s0,sp,384
 488:	0016                	c.slli	zero,0x5
 48a:	0b3a0e03          	lb	t3,179(s4)
 48e:	0b390b3b          	0xb390b3b
 492:	1349                	addi	t1,t1,-14
 494:	0000                	unimp
 496:	2404                	fld	fs1,8(s0)
 498:	0b00                	addi	s0,sp,400
 49a:	030b3e0b          	0x30b3e0b
 49e:	0008                	0x8
 4a0:	0500                	addi	s0,sp,640
 4a2:	0034                	addi	a3,sp,8
 4a4:	0b3a0e03          	lb	t3,179(s4)
 4a8:	0b390b3b          	0xb390b3b
 4ac:	1349                	addi	t1,t1,-14
 4ae:	1802193f 2e060000 	0x2e0600001802193f
 4b6:	3f00                	fld	fs0,56(a4)
 4b8:	0319                	addi	t1,t1,6
 4ba:	3a0e                	fld	fs4,224(sp)
 4bc:	390b3b0b          	0x390b3b0b
 4c0:	1113490b          	0x1113490b
 4c4:	1201                	addi	tp,tp,-32
 4c6:	4006                	0x4006
 4c8:	9618                	0x9618
 4ca:	1942                	slli	s2,s2,0x30
 4cc:	0000                	unimp
 4ce:	3f002e07          	flw	ft8,1008(zero) # 3f0 <xvprintf+0xa4>
 4d2:	0319                	addi	t1,t1,6
 4d4:	3a0e                	fld	fs4,224(sp)
 4d6:	390b3b0b          	0x390b3b0b
 4da:	1201110b          	0x1201110b
 4de:	4006                	0x4006
 4e0:	9718                	0x9718
 4e2:	1942                	slli	s2,s2,0x30
 4e4:	0000                	unimp
 4e6:	0100                	addi	s0,sp,128
 4e8:	0111                	addi	sp,sp,4
 4ea:	0e25                	addi	t3,t3,9
 4ec:	0e030b13          	addi	s6,t1,224
 4f0:	17550e1b          	0x17550e1b
 4f4:	0111                	addi	sp,sp,4
 4f6:	1710                	addi	a2,sp,928
 4f8:	0000                	unimp
 4fa:	2402                	fld	fs0,0(sp)
 4fc:	0b00                	addi	s0,sp,400
 4fe:	030b3e0b          	0x30b3e0b
 502:	000e                	c.slli	zero,0x3
 504:	0300                	addi	s0,sp,384
 506:	0016                	c.slli	zero,0x5
 508:	0b3a0e03          	lb	t3,179(s4)
 50c:	0b390b3b          	0xb390b3b
 510:	1349                	addi	t1,t1,-14
 512:	0000                	unimp
 514:	2404                	fld	fs1,8(s0)
 516:	0b00                	addi	s0,sp,400
 518:	030b3e0b          	0x30b3e0b
 51c:	0008                	0x8
 51e:	0500                	addi	s0,sp,640
 520:	0115                	addi	sp,sp,5
 522:	13011927          	0x13011927
 526:	0000                	unimp
 528:	0506                	slli	a0,a0,0x1
 52a:	4900                	lw	s0,16(a0)
 52c:	07000013          	li	zero,112
 530:	0034                	addi	a3,sp,8
 532:	0b3a0e03          	lb	t3,179(s4)
 536:	0b390b3b          	0xb390b3b
 53a:	1349                	addi	t1,t1,-14
 53c:	193c193f 0f080000 	0xf080000193c193f
 544:	0b00                	addi	s0,sp,400
 546:	0013490b          	0x13490b
 54a:	0900                	addi	s0,sp,144
 54c:	0104                	addi	s1,sp,128
 54e:	0b3e0e03          	lb	t3,179(t3)
 552:	13490b0b          	0x13490b0b
 556:	0b3a                	slli	s6,s6,0xe
 558:	0b390b3b          	0xb390b3b
 55c:	1301                	addi	t1,t1,-32
 55e:	0000                	unimp
 560:	280a                	fld	fa6,128(sp)
 562:	0300                	addi	s0,sp,384
 564:	1c0e                	slli	s8,s8,0x23
 566:	0b00000b          	0xb00000b
 56a:	0e030113          	addi	sp,t1,224
 56e:	0b3a0b0b          	0xb3a0b0b
 572:	0b390b3b          	0xb390b3b
 576:	1301                	addi	t1,t1,-32
 578:	0000                	unimp
 57a:	0d0c                	addi	a1,sp,656
 57c:	0300                	addi	s0,sp,384
 57e:	3a0e                	fld	fs4,224(sp)
 580:	390b3b0b          	0x390b3b0b
 584:	3813490b          	0x3813490b
 588:	0d00000b          	0xd00000b
 58c:	000d                	c.nop	3
 58e:	0b3a0803          	lb	a6,179(s4)
 592:	0b390b3b          	0xb390b3b
 596:	1349                	addi	t1,t1,-14
 598:	0b38                	addi	a4,sp,408
 59a:	0000                	unimp
 59c:	340e                	fld	fs0,224(sp)
 59e:	4700                	lw	s0,8(a4)
 5a0:	3b0b3a13          	sltiu	s4,s6,944
 5a4:	020b390b          	0x20b390b
 5a8:	0018                	0x18
 5aa:	0f00                	addi	s0,sp,912
 5ac:	0034                	addi	a3,sp,8
 5ae:	0b3a0e03          	lb	t3,179(s4)
 5b2:	0b390b3b          	0xb390b3b
 5b6:	1349                	addi	t1,t1,-14
 5b8:	1802193f 2e100000 	0x2e1000001802193f
 5c0:	3f01                	jal	4d0 <xvprintf+0x184>
 5c2:	0319                	addi	t1,t1,6
 5c4:	3a0e                	fld	fs4,224(sp)
 5c6:	390b3b0b          	0x390b3b0b
 5ca:	4919270b          	0x4919270b
 5ce:	12011113          	0x12011113
 5d2:	4006                	0x4006
 5d4:	9618                	0x9618
 5d6:	1942                	slli	s2,s2,0x30
 5d8:	1301                	addi	t1,t1,-32
 5da:	0000                	unimp
 5dc:	0511                	addi	a0,a0,4
 5de:	0300                	addi	s0,sp,384
 5e0:	3a0e                	fld	fs4,224(sp)
 5e2:	390b3b0b          	0x390b3b0b
 5e6:	0213490b          	0x213490b
 5ea:	0018                	0x18
 5ec:	1200                	addi	s0,sp,288
 5ee:	0034                	addi	a3,sp,8
 5f0:	0b3a0e03          	lb	t3,179(s4)
 5f4:	0b390b3b          	0xb390b3b
 5f8:	1349                	addi	t1,t1,-14
 5fa:	1802                	slli	a6,a6,0x20
 5fc:	0000                	unimp
 5fe:	3f012e13          	slti	t3,sp,1008
 602:	0319                	addi	t1,t1,6
 604:	3a0e                	fld	fs4,224(sp)
 606:	390b3b0b          	0x390b3b0b
 60a:	1119270b          	0x1119270b
 60e:	1201                	addi	tp,tp,-32
 610:	4006                	0x4006
 612:	9618                	0x9618
 614:	1942                	slli	s2,s2,0x30
 616:	1301                	addi	t1,t1,-32
 618:	0000                	unimp
 61a:	2e14                	fld	fa3,24(a2)
 61c:	3f01                	jal	52c <xvprintf+0x1e0>
 61e:	0319                	addi	t1,t1,6
 620:	3a0e                	fld	fs4,224(sp)
 622:	390b3b0b          	0x390b3b0b
 626:	1201110b          	0x1201110b
 62a:	4006                	0x4006
 62c:	9618                	0x9618
 62e:	1942                	slli	s2,s2,0x30
 630:	1301                	addi	t1,t1,-32
 632:	0000                	unimp
 634:	2e15                	jal	968 <set_scan_seg_state+0x24>
 636:	3f00                	fld	fs0,56(a4)
 638:	0319                	addi	t1,t1,6
 63a:	3a0e                	fld	fs4,224(sp)
 63c:	390b3b0b          	0x390b3b0b
 640:	1201110b          	0x1201110b
 644:	4006                	0x4006
 646:	9618                	0x9618
 648:	1942                	slli	s2,s2,0x30
 64a:	0000                	unimp
 64c:	2e16                	fld	ft8,320(sp)
 64e:	3f01                	jal	55e <xvprintf+0x212>
 650:	0319                	addi	t1,t1,6
 652:	3a0e                	fld	fs4,224(sp)
 654:	390b3b0b          	0x390b3b0b
 658:	1201110b          	0x1201110b
 65c:	4006                	0x4006
 65e:	9618                	0x9618
 660:	1942                	slli	s2,s2,0x30
 662:	0000                	unimp
 664:	11010b17          	auipc	s6,0x11010
 668:	1201                	addi	tp,tp,-32
 66a:	0006                	c.slli	zero,0x1
 66c:	1800                	addi	s0,sp,48
 66e:	0034                	addi	a3,sp,8
 670:	0b3a0803          	lb	a6,179(s4)
 674:	0b390b3b          	0xb390b3b
 678:	1349                	addi	t1,t1,-14
 67a:	1802                	slli	a6,a6,0x20
 67c:	0000                	unimp
	...

Disassembly of section .debug_aranges:

00000000 <.debug_aranges>:
   0:	001c                	0x1c
   2:	0000                	unimp
   4:	0002                	c.slli64	zero
   6:	0000                	unimp
   8:	0000                	unimp
   a:	0004                	0x4
	...
  14:	0068                	addi	a0,sp,12
	...
  1e:	0000                	unimp
  20:	001c                	0x1c
  22:	0000                	unimp
  24:	0002                	c.slli64	zero
  26:	0026                	c.slli	zero,0x9
  28:	0000                	unimp
  2a:	0004                	0x4
  2c:	0000                	unimp
  2e:	0000                	unimp
  30:	0068                	addi	a0,sp,12
  32:	0000                	unimp
  34:	0128                	addi	a0,sp,136
	...
  3e:	0000                	unimp
  40:	001c                	0x1c
  42:	0000                	unimp
  44:	0002                	c.slli64	zero
  46:	004c                	addi	a1,sp,4
  48:	0000                	unimp
  4a:	0004                	0x4
  4c:	0000                	unimp
  4e:	0000                	unimp
  50:	0190                	addi	a2,sp,192
  52:	0000                	unimp
  54:	006c                	addi	a1,sp,12
	...
  5e:	0000                	unimp
  60:	002c                	addi	a1,sp,8
  62:	0000                	unimp
  64:	0002                	c.slli64	zero
  66:	011c                	addi	a5,sp,128
  68:	0000                	unimp
  6a:	0004                	0x4
  6c:	0000                	unimp
  6e:	0000                	unimp
  70:	01fc                	addi	a5,sp,204
  72:	0000                	unimp
  74:	004c                	addi	a1,sp,4
	...
  7e:	0000                	unimp
  80:	0248                	addi	a0,sp,260
  82:	0000                	unimp
  84:	0034                	addi	a3,sp,8
	...
  8e:	0000                	unimp
  90:	0034                	addi	a3,sp,8
  92:	0000                	unimp
  94:	0002                	c.slli64	zero
  96:	0240                	addi	s0,sp,260
  98:	0000                	unimp
  9a:	0004                	0x4
  9c:	0000                	unimp
  9e:	0000                	unimp
  a0:	027c                	addi	a5,sp,268
  a2:	0000                	unimp
  a4:	0080                	addi	s0,sp,64
  a6:	0000                	unimp
  a8:	02fc                	addi	a5,sp,332
  aa:	0000                	unimp
  ac:	0050                	addi	a2,sp,4
  ae:	0000                	unimp
  b0:	034c                	addi	a1,sp,388
  b2:	0000                	unimp
  b4:	0498                	addi	a4,sp,576
  b6:	0000                	unimp
  b8:	07e4                	addi	s1,sp,972
  ba:	0000                	unimp
  bc:	0060                	addi	s0,sp,12
	...
  c6:	0000                	unimp
  c8:	001c                	0x1c
  ca:	0000                	unimp
  cc:	0002                	c.slli64	zero
  ce:	0434                	addi	a3,sp,520
  d0:	0000                	unimp
  d2:	0004                	0x4
  d4:	0000                	unimp
  d6:	0000                	unimp
  d8:	0844                	addi	s1,sp,20
  da:	0000                	unimp
  dc:	0024                	addi	s1,sp,8
	...
  e6:	0000                	unimp
  e8:	002c                	addi	a1,sp,8
  ea:	0000                	unimp
  ec:	0002                	c.slli64	zero
  ee:	04e9                	addi	s1,s1,26
  f0:	0000                	unimp
  f2:	0004                	0x4
  f4:	0000                	unimp
  f6:	0000                	unimp
  f8:	0868                	addi	a0,sp,28
  fa:	0000                	unimp
  fc:	0034                	addi	a3,sp,8
  fe:	0000                	unimp
 100:	089c                	addi	a5,sp,80
 102:	0000                	unimp
 104:	00a8                	addi	a0,sp,72
 106:	0000                	unimp
 108:	0944                	addi	s1,sp,148
 10a:	0000                	unimp
 10c:	00ac                	addi	a1,sp,72
	...
 116:	0000                	unimp
 118:	003c                	addi	a5,sp,8
 11a:	0000                	unimp
 11c:	0002                	c.slli64	zero
 11e:	064d                	addi	a2,a2,19
 120:	0000                	unimp
 122:	0004                	0x4
 124:	0000                	unimp
 126:	0000                	unimp
 128:	09f0                	addi	a2,sp,220
 12a:	0000                	unimp
 12c:	0028                	addi	a0,sp,8
 12e:	0000                	unimp
 130:	0a18                	addi	a4,sp,272
 132:	0000                	unimp
 134:	002c                	addi	a1,sp,8
 136:	0000                	unimp
 138:	0a44                	addi	s1,sp,276
 13a:	0000                	unimp
 13c:	003c                	addi	a5,sp,8
 13e:	0000                	unimp
 140:	0a80                	addi	s0,sp,336
 142:	0000                	unimp
 144:	0028                	addi	a0,sp,8
 146:	0000                	unimp
 148:	0aa8                	addi	a0,sp,344
 14a:	0000                	unimp
 14c:	0060                	addi	s0,sp,12
	...
 156:	0000                	unimp
 158:	0024                	addi	s1,sp,8
 15a:	0000                	unimp
 15c:	0002                	c.slli64	zero
 15e:	0000074b          	fnmsub.s	fa4,ft0,ft0,ft0,rne
 162:	0004                	0x4
 164:	0000                	unimp
 166:	0000                	unimp
 168:	0b08                	addi	a0,sp,400
 16a:	0000                	unimp
 16c:	0044                	addi	s1,sp,4
 16e:	0000                	unimp
 170:	0b4c                	addi	a1,sp,404
 172:	0000                	unimp
 174:	0048                	addi	a0,sp,4
	...
 17e:	0000                	unimp
 180:	0054                	addi	a3,sp,4
 182:	0000                	unimp
 184:	0002                	c.slli64	zero
 186:	00000833          	add	a6,zero,zero
 18a:	0004                	0x4
 18c:	0000                	unimp
 18e:	0000                	unimp
 190:	0b94                	addi	a3,sp,464
 192:	0000                	unimp
 194:	0094                	addi	a3,sp,64
 196:	0000                	unimp
 198:	0c28                	addi	a0,sp,536
 19a:	0000                	unimp
 19c:	0030                	addi	a2,sp,8
 19e:	0000                	unimp
 1a0:	0c58                	addi	a4,sp,532
 1a2:	0000                	unimp
 1a4:	0054                	addi	a3,sp,4
 1a6:	0000                	unimp
 1a8:	0cac                	addi	a1,sp,600
 1aa:	0000                	unimp
 1ac:	0134                	addi	a3,sp,136
 1ae:	0000                	unimp
 1b0:	0de0                	addi	s0,sp,732
 1b2:	0000                	unimp
 1b4:	0134                	addi	a3,sp,136
 1b6:	0000                	unimp
 1b8:	0f14                	addi	a3,sp,912
 1ba:	0000                	unimp
 1bc:	0134                	addi	a3,sp,136
 1be:	0000                	unimp
 1c0:	1048                	addi	a0,sp,36
 1c2:	0000                	unimp
 1c4:	034c                	addi	a1,sp,388
 1c6:	0000                	unimp
 1c8:	1394                	addi	a3,sp,480
 1ca:	0000                	unimp
 1cc:	00f0                	addi	a2,sp,76
	...

Disassembly of section .debug_str:

00000000 <.debug_str>:
   0:	2f637273          	csrrci	tp,0x2f6,6
   4:	72617473          	csrrci	s0,0x726,2
   8:	2e74                	fld	fa3,216(a2)
   a:	3a440053          	0x3a440053
   e:	505c                	lw	a5,36(s0)
  10:	6f72                	flw	ft10,28(sp)
  12:	656a                	flw	fa0,152(sp)
  14:	765c7463          	bgeu	s8,t0,77c <xvprintf+0x430>
  18:	7265                	lui	tp,0xffff9
  1a:	6c69                	lui	s8,0x1a
  1c:	785c676f          	jal	a4,c6fa0 <__stack_size+0xc4fa0>
  20:	756d                	lui	a0,0xffffb
  22:	652d                	lui	a0,0xb
  24:	656c                	flw	fa1,76(a0)
  26:	6f727463          	bgeu	tp,s7,70e <xvprintf+0x3c2>
  2a:	696e                	flw	fs2,216(sp)
  2c:	79732d63          	0x79732d63
  30:	6d657473          	csrrci	s0,0x6d6,10
  34:	642d                	lui	s0,0xb
  36:	7365                	lui	t1,0xffff9
  38:	6769                	lui	a4,0x1a
  3a:	2d6e                	fld	fs10,216(sp)
  3c:	6964                	flw	fs1,84(a0)
  3e:	632d6967          	0x632d6967
  42:	6b6c                	flw	fa1,84(a4)
  44:	645c                	flw	fa5,12(s0)
  46:	6769                	lui	a4,0x1a
  48:	7469                	lui	s0,0xffffa
  4a:	6c61                	lui	s8,0x18
  4c:	635f 6f6c 6b63      	0x6b636f6c635f
  52:	735c                	flw	fa5,36(a4)
  54:	6372                	flw	ft6,28(sp)
  56:	735c                	flw	fa5,36(a4)
  58:	4e470077          	0x4e470077
  5c:	2055                	jal	100 <handle_synchronous>
  5e:	5341                	li	t1,-16
  60:	3220                	fld	fs0,96(a2)
  62:	332e                	fld	ft6,232(sp)
  64:	0032                	c.slli	zero,0xc
  66:	2f637273          	csrrci	tp,0x2f6,6
  6a:	7274                	flw	fa3,100(a2)
  6c:	7061                	c.lui	zero,0xffff8
  6e:	655f 746e 7972      	0x7972746e655f
  74:	532e                	lw	t1,232(sp)
  76:	4d00                	lw	s0,24(a0)
  78:	6961                	lui	s2,0x18
  7a:	5f6e                	lw	t5,248(sp)
  7c:	74617473          	csrrci	s0,0x746,2
  80:	7375                	lui	t1,0xffffd
  82:	5300                	lw	s0,32(a4)
  84:	5445                	li	s0,-15
  86:	545f 4d49 0045      	0x454d49545f
  8c:	20554e47          	fmsub.s	ft8,fa0,ft5,ft4,rmm
  90:	20373143          	fmadd.s	ft2,fa4,ft3,ft4,rup
  94:	2e38                	fld	fa4,88(a2)
  96:	2e32                	fld	ft8,264(sp)
  98:	2030                	fld	fa2,64(s0)
  9a:	6d2d                	lui	s10,0xb
  9c:	7261                	lui	tp,0xffff8
  9e:	723d6863          	bltu	s10,gp,7ce <xvprintf+0x482>
  a2:	3376                	fld	ft6,376(sp)
  a4:	6932                	flw	fs2,12(sp)
  a6:	2d20                	fld	fs0,88(a0)
  a8:	616d                	addi	sp,sp,240
  aa:	6962                	flw	fs2,24(sp)
  ac:	693d                	lui	s2,0xf
  ae:	706c                	flw	fa1,100(s0)
  b0:	2d203233          	0x2d203233
  b4:	636d                	lui	t1,0x1b
  b6:	6f6d                	lui	t5,0x1b
  b8:	6564                	flw	fs1,76(a0)
  ba:	3d6c                	fld	fa1,248(a0)
  bc:	656d                	lui	a0,0x1b
  be:	6c64                	flw	fs1,92(s0)
  c0:	2d20776f          	jal	a4,7392 <__stack_size+0x5392>
  c4:	662d2067          	0x662d2067
  c8:	7566                	flw	fa0,120(sp)
  ca:	636e                	flw	ft6,216(sp)
  cc:	6974                	flw	fa3,84(a0)
  ce:	732d6e6f          	jal	t3,d6800 <__stack_size+0xd4800>
  d2:	6365                	lui	t1,0x19
  d4:	6974                	flw	fa3,84(a0)
  d6:	20736e6f          	jal	t3,36adc <__stack_size+0x34adc>
  da:	662d                	lui	a2,0xb
  dc:	6164                	flw	fs1,68(a0)
  de:	6174                	flw	fa3,68(a0)
  e0:	732d                	lui	t1,0xfffeb
  e2:	6365                	lui	t1,0x19
  e4:	6974                	flw	fa3,84(a0)
  e6:	20736e6f          	jal	t3,36aec <__stack_size+0x34aec>
  ea:	662d                	lui	a2,0xb
  ec:	6f6e                	flw	ft10,216(sp)
  ee:	622d                	lui	tp,0xb
  f0:	6975                	lui	s2,0x1d
  f2:	746c                	flw	fa1,108(s0)
  f4:	6e69                	lui	t3,0x1a
  f6:	702d                	c.lui	zero,0xfffeb
  f8:	6972                	flw	fs2,28(sp)
  fa:	746e                	flw	fs0,248(sp)
  fc:	2066                	fld	ft0,88(sp)
  fe:	662d                	lui	a2,0xb
 100:	6f6e                	flw	ft10,216(sp)
 102:	622d                	lui	tp,0xb
 104:	6975                	lui	s2,0x1d
 106:	746c                	flw	fa1,108(s0)
 108:	6e69                	lui	t3,0x1a
 10a:	6d2d                	lui	s10,0xb
 10c:	6c61                	lui	s8,0x18
 10e:	6f6c                	flw	fa1,92(a4)
 110:	45530063          	beq	t1,s5,550 <xvprintf+0x204>
 114:	5f54                	lw	a3,60(a4)
 116:	4c41                	li	s8,16
 118:	5241                	li	tp,-16
 11a:	004d                	c.nop	19
 11c:	6e75                	lui	t3,0x1d
 11e:	6e676973          	csrrsi	s2,0x6e6,14
 122:	6465                	lui	s0,0x19
 124:	6320                	flw	fs0,64(a4)
 126:	6168                	flw	fa0,68(a0)
 128:	0072                	c.slli	zero,0x1c
 12a:	574f4853          	0x574f4853
 12e:	545f 4d49 0045      	0x454d49545f
 134:	726f6873          	csrrsi	a6,0x726,30
 138:	2074                	fld	fa3,192(s0)
 13a:	6e75                	lui	t3,0x1d
 13c:	6e676973          	csrrsi	s2,0x6e6,14
 140:	6465                	lui	s0,0x19
 142:	6920                	flw	fs0,80(a0)
 144:	746e                	flw	fs0,248(sp)
 146:	6d00                	flw	fs0,24(a0)
 148:	6961                	lui	s2,0x18
 14a:	006e                	c.slli	zero,0x1b
 14c:	6678                	flw	fa4,76(a2)
 14e:	6e75                	lui	t3,0x1d
 150:	756f5f63          	bge	t5,s6,8ae <set_scan_seg_num+0x12>
 154:	0074                	addi	a3,sp,12
 156:	6f6c                	flw	fa1,92(a4)
 158:	676e                	flw	fa4,216(sp)
 15a:	6c20                	flw	fs0,88(s0)
 15c:	20676e6f          	jal	t3,76362 <__stack_size+0x74362>
 160:	6e75                	lui	t3,0x1d
 162:	6e676973          	csrrsi	s2,0x6e6,14
 166:	6465                	lui	s0,0x19
 168:	6920                	flw	fs0,80(a0)
 16a:	746e                	flw	fs0,248(sp)
 16c:	6c00                	flw	fs0,24(s0)
 16e:	20676e6f          	jal	t3,76374 <__stack_size+0x74374>
 172:	6f6c                	flw	fa1,92(a4)
 174:	676e                	flw	fa4,216(sp)
 176:	6920                	flw	fs0,80(a0)
 178:	746e                	flw	fs0,248(sp)
 17a:	7300                	flw	fs0,32(a4)
 17c:	6372                	flw	ft6,28(sp)
 17e:	69616d2f          	0x69616d2f
 182:	2e6e                	fld	ft8,216(sp)
 184:	5f670063          	beq	a4,s6,764 <xvprintf+0x418>
 188:	616d                	addi	sp,sp,240
 18a:	6e69                	lui	t3,0x1a
 18c:	735f 6174 7574      	0x75746174735f
 192:	68730073          	0x68730073
 196:	2074726f          	jal	tp,47b9c <__stack_size+0x45b9c>
 19a:	6e69                	lui	t3,0x1a
 19c:	0074                	addi	a3,sp,12
 19e:	5f5f 6975 746e      	0x746e69755f5f
 1a4:	5f38                	lw	a4,120(a4)
 1a6:	0074                	addi	a3,sp,12
 1a8:	2f637273          	csrrci	tp,0x2f6,6
 1ac:	6175                	addi	sp,sp,368
 1ae:	7472                	flw	fs0,60(sp)
 1b0:	632e                	flw	ft6,200(sp)
 1b2:	7500                	flw	fs0,40(a0)
 1b4:	7261                	lui	tp,0xffff8
 1b6:	5f74                	lw	a3,124(a4)
 1b8:	6e69                	lui	t3,0x1a
 1ba:	7469                	lui	s0,0xffffa
 1bc:	7400                	flw	fs0,40(s0)
 1be:	6d69                	lui	s10,0x1a
 1c0:	5f65                	li	t5,-7
 1c2:	5f74756f          	jal	a0,47fb8 <__stack_size+0x45fb8>
 1c6:	6e756f63          	bltu	a0,t2,8c4 <set_scan_seg_num+0x28>
 1ca:	6574                	flw	fa3,76(a0)
 1cc:	0072                	c.slli	zero,0x1c
 1ce:	6175                	addi	sp,sp,368
 1d0:	7472                	flw	fs0,60(sp)
 1d2:	675f 7465 0063      	0x637465675f
 1d8:	5f5f 6975 746e      	0x746e69755f5f
 1de:	745f3233          	0x745f3233
 1e2:	7500                	flw	fs0,40(a0)
 1e4:	7261                	lui	tp,0xffff8
 1e6:	5f74                	lw	a3,124(a4)
 1e8:	7570                	flw	fa2,108(a0)
 1ea:	6374                	flw	fa3,68(a4)
 1ec:	7200                	flw	fs0,32(a2)
 1ee:	6e75                	lui	t3,0x1d
 1f0:	745f 6d69 5f65      	0x5f656d69745f
 1f6:	0074756f          	jal	a0,479fc <__stack_size+0x459fc>
 1fa:	5f5f 7562 6c69      	0x6c6975625f5f
 200:	6974                	flw	fa3,84(a0)
 202:	5f6e                	lw	t5,248(sp)
 204:	6176                	flw	ft2,92(sp)
 206:	6c5f 7369 0074      	0x7473696c5f
 20c:	7074756f          	jal	a0,48112 <__stack_size+0x46112>
 210:	7274                	flw	fa3,100(a2)
 212:	7800                	flw	fs0,48(s0)
 214:	7270                	flw	fa2,100(a2)
 216:	6e69                	lui	t3,0x1a
 218:	6674                	flw	fa3,76(a2)
 21a:	7800                	flw	fs0,48(s0)
 21c:	7076                	flw	ft0,124(sp)
 21e:	6972                	flw	fs2,28(sp)
 220:	746e                	flw	fs0,248(sp)
 222:	0066                	c.slli	zero,0x19
 224:	5f5f 6e67 6375      	0x63756e675f5f
 22a:	765f 5f61 696c      	0x696c5f61765f
 230:	73007473          	csrrci	s0,0x730,0
 234:	6372                	flw	ft6,28(sp)
 236:	7270782f          	0x7270782f
 23a:	6e69                	lui	t3,0x1a
 23c:	6674                	flw	fa3,76(a2)
 23e:	632e                	flw	ft6,200(sp)
 240:	7800                	flw	fs0,48(s0)
 242:	7570                	flw	fa2,108(a0)
 244:	7374                	flw	fa3,100(a4)
 246:	7800                	flw	fs0,48(s0)
 248:	7570                	flw	fa2,108(a0)
 24a:	6374                	flw	fa3,68(a4)
 24c:	7300                	flw	fs0,32(a4)
 24e:	6372                	flw	ft6,28(sp)
 250:	6172742f          	0x6172742f
 254:	5f70                	lw	a2,124(a4)
 256:	6168                	flw	fa0,68(a0)
 258:	646e                	flw	fs0,216(sp)
 25a:	656c                	flw	fa1,76(a0)
 25c:	2e72                	fld	ft8,280(sp)
 25e:	636d0063          	beq	s10,s6,87e <set_static_seg+0x16>
 262:	7561                	lui	a0,0xffff8
 264:	6d006573          	csrrsi	a0,0x6d0,0
 268:	7065                	c.lui	zero,0xffff9
 26a:	72740063          	beq	s0,t2,98a <set_scan_seg_state+0x46>
 26e:	7061                	c.lui	zero,0xffff8
 270:	685f 6e61 6c64      	0x6c646e61685f
 276:	7265                	lui	tp,0xffff9
 278:	6200                	flw	fs0,0(a2)
 27a:	7469                	lui	s0,0xffffa
 27c:	635f 6f68 736f      	0x736f6f68635f
 282:	0065                	c.nop	25
 284:	5f646c6f          	jal	s8,4687a <__stack_size+0x4487a>
 288:	6572                	flw	fa0,28(sp)
 28a:	65730067          	jr	1623(t1) # 19657 <__stack_size+0x17657>
 28e:	5f74                	lw	a3,124(a4)
 290:	74617473          	csrrci	s0,0x746,2
 294:	6369                	lui	t1,0x1a
 296:	735f 6765 7300      	0x73006765735f
 29c:	7465                	lui	s0,0xffff9
 29e:	735f 6163 5f6e      	0x5f6e6163735f
 2a4:	5f676573          	csrrsi	a0,0x5f6,14
 2a8:	756e                	flw	fa0,248(sp)
 2aa:	006d                	c.nop	27
 2ac:	6e69                	lui	t3,0x1a
 2ae:	6564                	flw	fs1,76(a0)
 2b0:	0078                	addi	a4,sp,12
 2b2:	2f637273          	csrrci	tp,0x2f6,6
 2b6:	5f676573          	csrrsi	a0,0x5f6,14
 2ba:	776f6873          	csrrsi	a6,0x776,30
 2be:	632e                	flw	ft6,200(sp)
 2c0:	7300                	flw	fs0,32(a4)
 2c2:	7465                	lui	s0,0xffff9
 2c4:	735f 6163 5f6e      	0x5f6e6163735f
 2ca:	5f676573          	csrrsi	a0,0x5f6,14
 2ce:	74617473          	csrrci	s0,0x746,2
 2d2:	0065                	c.nop	25
 2d4:	5f746567          	0x5f746567
 2d8:	5f636573          	csrrsi	a0,0x5f6,6
 2dc:	636f6c63          	bltu	t5,s6,914 <set_scan_seg_num+0x78>
 2e0:	75725f6b          	0x75725f6b
 2e4:	5f6e                	lw	t5,248(sp)
 2e6:	6974                	flw	fa3,84(a0)
 2e8:	656d                	lui	a0,0x1b
 2ea:	7300                	flw	fs0,32(a4)
 2ec:	6365                	lui	t1,0x19
 2ee:	635f 6f6c 6b63      	0x6b636f6c635f
 2f4:	635f 726c 7300      	0x7300726c635f
 2fa:	6372                	flw	ft6,28(sp)
 2fc:	6365732f          	0x6365732f
 300:	635f 6f6c 6b63      	0x6b636f6c635f
 306:	632e                	flw	ft6,200(sp)
 308:	6700                	flw	fs0,8(a4)
 30a:	7465                	lui	s0,0xffff9
 30c:	735f 6365 635f      	0x635f6365735f
 312:	6f6c                	flw	fa1,92(a4)
 314:	635f6b63          	bltu	t5,s5,94a <set_scan_seg_state+0x6>
 318:	7275                	lui	tp,0xffffd
 31a:	745f 6d69 0065      	0x656d69745f
 320:	5f746573          	csrrsi	a0,0x5f7,8
 324:	5f636573          	csrrsi	a0,0x5f6,6
 328:	636f6c63          	bltu	t5,s6,960 <set_scan_seg_state+0x1c>
 32c:	6e695f6b          	0x6e695f6b
 330:	7469                	lui	s0,0xffffa
 332:	745f 6d69 0065      	0x656d69745f
 338:	5f746567          	0x5f746567
 33c:	5f636573          	csrrsi	a0,0x5f6,6
 340:	636f6c63          	bltu	t5,s6,978 <set_scan_seg_state+0x34>
 344:	6e695f6b          	0x6e695f6b
 348:	7469                	lui	s0,0xffffa
 34a:	745f 6d69 0065      	0x656d69745f
 350:	2f637273          	csrrci	tp,0x2f6,6
 354:	7562                	flw	fa0,56(sp)
 356:	7474                	flw	fa3,108(s0)
 358:	632e6e6f          	jal	t3,e698a <__stack_size+0xe498a>
 35c:	7000                	flw	fs0,32(s0)
 35e:	6572                	flw	fa0,28(sp)
 360:	625f 7475 6f74      	0x6f747475625f
 366:	5f6e                	lw	t5,248(sp)
 368:	656c                	flw	fa1,76(a0)
 36a:	6576                	flw	fa0,92(sp)
 36c:	006c                	addi	a1,sp,12
 36e:	6572                	flw	fa0,28(sp)
 370:	7266                	flw	ft4,120(sp)
 372:	7365                	lui	t1,0xffff9
 374:	5f68                	lw	a0,124(a4)
 376:	7562                	flw	fa0,56(sp)
 378:	7474                	flw	fa3,108(s0)
 37a:	6c5f6e6f          	jal	t3,f723e <__stack_size+0xf523e>
 37e:	7665                	lui	a2,0xffff9
 380:	6c65                	lui	s8,0x19
 382:	6400                	flw	fs0,8(s0)
 384:	7465                	lui	s0,0xffff9
 386:	6365                	lui	t1,0x19
 388:	5f74                	lw	a3,124(a4)
 38a:	6166                	flw	ft2,88(sp)
 38c:	6c6c                	flw	fa1,92(s0)
 38e:	6e69                	lui	t3,0x1a
 390:	75630067          	jr	1878(t1) # 19756 <__stack_size+0x17756>
 394:	5f72                	lw	t5,60(sp)
 396:	7562                	flw	fa0,56(sp)
 398:	7474                	flw	fa3,108(s0)
 39a:	6c5f6e6f          	jal	t3,f725e <__stack_size+0xf525e>
 39e:	7665                	lui	a2,0xffff9
 3a0:	6c65                	lui	s8,0x19
 3a2:	7200                	flw	fs0,32(a2)
 3a4:	6665                	lui	a2,0x19
 3a6:	6572                	flw	fa0,28(sp)
 3a8:	745f6873          	csrrsi	a6,0x745,30
 3ac:	6d69                	lui	s10,0x1a
 3ae:	0065                	c.nop	25
 3b0:	6174                	flw	fa3,68(a0)
 3b2:	5f72                	lw	t5,60(sp)
 3b4:	6974                	flw	fa3,84(a0)
 3b6:	656d                	lui	a0,0x1b
 3b8:	6d617473          	csrrci	s0,0x6d6,2
 3bc:	0070                	addi	a2,sp,12
 3be:	6c61                	lui	s8,0x18
 3c0:	7261                	lui	tp,0xffff8
 3c2:	5f6d                	li	t5,-5
 3c4:	6e65                	lui	t3,0x19
 3c6:	6261                	lui	tp,0x18
 3c8:	656c                	flw	fa1,76(a0)
 3ca:	7300                	flw	fs0,32(a4)
 3cc:	6174                	flw	fa3,68(a0)
 3ce:	6974                	flw	fa3,84(a0)
 3d0:	68735f63          	bge	t1,t2,a6e <set_sec_clock_init_time+0x2a>
 3d4:	6200776f          	jal	a4,79f4 <__stack_size+0x59f4>
 3d8:	7475                	lui	s0,0xffffd
 3da:	6f74                	flw	fa3,92(a4)
 3dc:	5f6e                	lw	t5,248(sp)
 3de:	7274                	flw	fa3,100(a2)
 3e0:	6769                	lui	a4,0x1a
 3e2:	00656c67          	0x656c67
 3e6:	63656863          	bltu	a0,s6,a16 <get_sec_clock_run_time+0x26>
 3ea:	6c615f6b          	0x6c615f6b
 3ee:	7261                	lui	tp,0xffff8
 3f0:	006d                	c.nop	27
 3f2:	5f676573          	csrrsi	a0,0x5f6,14
 3f6:	776f6873          	csrrsi	a6,0x776,30
 3fa:	635f 7275 745f      	0x745f7275635f
 400:	6d69                	lui	s10,0x1a
 402:	0065                	c.nop	25
 404:	5f727563          	bgeu	tp,s7,9ee <set_scan_seg_state+0xaa>
 408:	6974                	flw	fa3,84(a0)
 40a:	656d                	lui	a0,0x1b
 40c:	6d617473          	csrrci	s0,0x6d6,2
 410:	0070                	addi	a2,sp,12
 412:	776f6873          	csrrsi	a6,0x776,30
 416:	745f 6d69 0065      	0x656d69745f
 41c:	2f637273          	csrrci	tp,0x2f6,6
 420:	7270                	flw	fa2,100(a2)
 422:	7365636f          	jal	t1,56b58 <__stack_size+0x54b58>
 426:	75665f73          	csrrwi	t5,0x756,12
 42a:	636e                	flw	ft6,216(sp)
 42c:	632e                	flw	ft6,200(sp)
 42e:	6800                	flw	fs0,16(s0)
 430:	0072756f          	jal	a0,27c36 <__stack_size+0x25c36>
 434:	6c61                	lui	s8,0x18
 436:	7261                	lui	tp,0xffff8
 438:	5f6d                	li	t5,-5
 43a:	6974                	flw	fa3,84(a0)
 43c:	656d                	lui	a0,0x1b
 43e:	6d617473          	csrrci	s0,0x6d6,2
 442:	0070                	addi	a2,sp,12
 444:	5f676573          	csrrsi	a0,0x5f6,14
 448:	776f6873          	csrrsi	a6,0x776,30
 44c:	745f 7261 745f      	0x745f7261745f
 452:	6d69                	lui	s10,0x1a
 454:	0065                	c.nop	25
 456:	6c61                	lui	s8,0x18
 458:	7261                	lui	tp,0xffff8
 45a:	5f6d                	li	t5,-5
 45c:	7274                	flw	fa3,100(a2)
 45e:	6769                	lui	a4,0x1a
 460:	00656c67          	0x656c67
 464:	6964                	flw	fs1,84(a0)
 466:	61746967          	0x61746967
 46a:	5f6c                	lw	a1,124(a4)
 46c:	636f6c63          	bltu	t5,s6,aa4 <get_sec_clock_init_time+0x24>
 470:	6e695f6b          	0x6e695f6b
 474:	7469                	lui	s0,0xffffa
 476:	7200                	flw	fs0,32(a2)
 478:	7465                	lui	s0,0xffff9
 47a:	745f 6d69 0065      	0x656d69745f
 480:	6974                	flw	fa3,84(a0)
 482:	656d                	lui	a0,0x1b
 484:	6d617473          	csrrci	s0,0x6d6,2
 488:	5f70                	lw	a2,124(a4)
 48a:	6f74                	flw	fa3,92(a4)
 48c:	745f 6d69 0065      	0x656d69745f
 492:	6c61                	lui	s8,0x18
 494:	7261                	lui	tp,0xffff8
 496:	5f6d                	li	t5,-5
 498:	6974                	flw	fa3,84(a0)
 49a:	656d                	lui	a0,0x1b
 49c:	6d617473          	csrrci	s0,0x6d6,2
 4a0:	5f70                	lw	a2,124(a4)
 4a2:	6d74                	flw	fa3,92(a0)
 4a4:	0070                	addi	a2,sp,12
 4a6:	5f676573          	csrrsi	a0,0x5f6,14
 4aa:	776f6873          	csrrsi	a6,0x776,30
 4ae:	615f 616c 6d72      	0x6d72616c615f
 4b4:	745f 6d69 0065      	0x656d69745f
 4ba:	7562                	flw	fa0,56(sp)
 4bc:	7474                	flw	fa3,108(s0)
 4be:	615f6e6f          	jal	t3,f72d2 <__stack_size+0xf52d2>
 4c2:	6f697463          	bgeu	s2,s6,baa <digital_clock_init+0x16>
 4c6:	006e                	c.slli	zero,0x1b
 4c8:	425f 6f6f 006c      	0x6c6f6f425f

Disassembly of section .debug_ranges:

00000000 <.debug_ranges>:
   0:	0190                	addi	a2,sp,192
   2:	0000                	unimp
   4:	01fc                	addi	a5,sp,204
	...
   e:	0000                	unimp
  10:	01fc                	addi	a5,sp,204
  12:	0000                	unimp
  14:	0248                	addi	a0,sp,260
  16:	0000                	unimp
  18:	0001                	nop
  1a:	0000                	unimp
  1c:	0001                	nop
  1e:	0000                	unimp
  20:	0248                	addi	a0,sp,260
  22:	0000                	unimp
  24:	027c                	addi	a5,sp,268
	...
  2e:	0000                	unimp
  30:	027c                	addi	a5,sp,268
  32:	0000                	unimp
  34:	02fc                	addi	a5,sp,332
  36:	0000                	unimp
  38:	02fc                	addi	a5,sp,332
  3a:	0000                	unimp
  3c:	034c                	addi	a1,sp,388
  3e:	0000                	unimp
  40:	034c                	addi	a1,sp,388
  42:	0000                	unimp
  44:	07e4                	addi	s1,sp,972
  46:	0000                	unimp
  48:	07e4                	addi	s1,sp,972
  4a:	0000                	unimp
  4c:	0844                	addi	s1,sp,20
	...
  56:	0000                	unimp
  58:	0844                	addi	s1,sp,20
  5a:	0000                	unimp
  5c:	0868                	addi	a0,sp,28
	...
  66:	0000                	unimp
  68:	0868                	addi	a0,sp,28
  6a:	0000                	unimp
  6c:	089c                	addi	a5,sp,80
  6e:	0000                	unimp
  70:	089c                	addi	a5,sp,80
  72:	0000                	unimp
  74:	0944                	addi	s1,sp,148
  76:	0000                	unimp
  78:	0944                	addi	s1,sp,148
  7a:	0000                	unimp
  7c:	09f0                	addi	a2,sp,220
	...
  86:	0000                	unimp
  88:	09f0                	addi	a2,sp,220
  8a:	0000                	unimp
  8c:	0a18                	addi	a4,sp,272
  8e:	0000                	unimp
  90:	0a18                	addi	a4,sp,272
  92:	0000                	unimp
  94:	0a44                	addi	s1,sp,276
  96:	0000                	unimp
  98:	0a44                	addi	s1,sp,276
  9a:	0000                	unimp
  9c:	0a80                	addi	s0,sp,336
  9e:	0000                	unimp
  a0:	0a80                	addi	s0,sp,336
  a2:	0000                	unimp
  a4:	0aa8                	addi	a0,sp,344
  a6:	0000                	unimp
  a8:	0aa8                	addi	a0,sp,344
  aa:	0000                	unimp
  ac:	0b08                	addi	a0,sp,400
	...
  b6:	0000                	unimp
  b8:	0b08                	addi	a0,sp,400
  ba:	0000                	unimp
  bc:	0b4c                	addi	a1,sp,404
  be:	0000                	unimp
  c0:	0b4c                	addi	a1,sp,404
  c2:	0000                	unimp
  c4:	0b94                	addi	a3,sp,464
	...
  ce:	0000                	unimp
  d0:	0b94                	addi	a3,sp,464
  d2:	0000                	unimp
  d4:	0c28                	addi	a0,sp,536
  d6:	0000                	unimp
  d8:	0c28                	addi	a0,sp,536
  da:	0000                	unimp
  dc:	0c58                	addi	a4,sp,532
  de:	0000                	unimp
  e0:	0c58                	addi	a4,sp,532
  e2:	0000                	unimp
  e4:	0cac                	addi	a1,sp,600
  e6:	0000                	unimp
  e8:	0cac                	addi	a1,sp,600
  ea:	0000                	unimp
  ec:	0de0                	addi	s0,sp,732
  ee:	0000                	unimp
  f0:	0de0                	addi	s0,sp,732
  f2:	0000                	unimp
  f4:	0f14                	addi	a3,sp,912
  f6:	0000                	unimp
  f8:	0f14                	addi	a3,sp,912
  fa:	0000                	unimp
  fc:	1048                	addi	a0,sp,36
  fe:	0000                	unimp
 100:	1048                	addi	a0,sp,36
 102:	0000                	unimp
 104:	1394                	addi	a3,sp,480
 106:	0000                	unimp
 108:	1394                	addi	a3,sp,480
 10a:	0000                	unimp
 10c:	1484                	addi	s1,sp,608
	...

Disassembly of section .comment:

00000000 <.comment>:
   0:	3a434347          	fmsub.d	ft6,ft6,ft4,ft7,rmm
   4:	2820                	fld	fs0,80(s0)
   6:	20554e47          	fmsub.s	ft8,fa0,ft5,ft4,rmm
   a:	434d                	li	t1,19
   c:	2055                	jal	b0 <trap_entry+0x48>
   e:	6345                	lui	t1,0x11
  10:	696c                	flw	fa1,84(a0)
  12:	7370                	flw	fa2,100(a4)
  14:	2065                	jal	bc <trap_entry+0x54>
  16:	4952                	lw	s2,20(sp)
  18:	562d4353          	0x562d4353
  1c:	4520                	lw	s0,72(a0)
  1e:	626d                	lui	tp,0x1b
  20:	6465                	lui	s0,0x19
  22:	6564                	flw	fs1,76(a0)
  24:	2064                	fld	fs1,192(s0)
  26:	2c434347          	0x2c434347
  2a:	3620                	fld	fs0,104(a2)
  2c:	2d34                	fld	fa3,88(a0)
  2e:	6962                	flw	fs2,24(sp)
  30:	2974                	fld	fa3,208(a0)
  32:	3820                	fld	fs0,112(s0)
  34:	322e                	fld	ft4,232(sp)
  36:	302e                	fld	ft0,232(sp)
	...

Disassembly of section .debug_frame:

00000000 <.debug_frame>:
   0:	000c                	0xc
   2:	0000                	unimp
   4:	ffff                	0xffff
   6:	ffff                	0xffff
   8:	0001                	nop
   a:	7c01                	lui	s8,0xfffe0
   c:	0d01                	addi	s10,s10,0
   e:	0002                	c.slli64	zero
  10:	0018                	0x18
  12:	0000                	unimp
  14:	0000                	unimp
  16:	0000                	unimp
  18:	0190                	addi	a2,sp,192
  1a:	0000                	unimp
  1c:	006c                	addi	a1,sp,12
  1e:	0000                	unimp
  20:	0e44                	addi	s1,sp,788
  22:	4810                	lw	a2,16(s0)
  24:	0181                	addi	gp,gp,0
  26:	0288                	addi	a0,sp,320
  28:	0c44                	addi	s1,sp,532
  2a:	0008                	0x8
  2c:	000c                	0xc
  2e:	0000                	unimp
  30:	ffff                	0xffff
  32:	ffff                	0xffff
  34:	0001                	nop
  36:	7c01                	lui	s8,0xfffe0
  38:	0d01                	addi	s10,s10,0
  3a:	0002                	c.slli64	zero
  3c:	001c                	0x1c
  3e:	0000                	unimp
  40:	002c                	addi	a1,sp,8
  42:	0000                	unimp
  44:	01fc                	addi	a5,sp,204
  46:	0000                	unimp
  48:	004c                	addi	a1,sp,4
  4a:	0000                	unimp
  4c:	0e44                	addi	s1,sp,788
  4e:	4420                	lw	s0,72(s0)
  50:	0188                	addi	a0,sp,192
  52:	0c44                	addi	s1,sp,532
  54:	0008                	0x8
  56:	c878                	sw	a4,84(s0)
  58:	0d44                	addi	s1,sp,660
  5a:	0002                	c.slli64	zero
  5c:	001c                	0x1c
  5e:	0000                	unimp
  60:	002c                	addi	a1,sp,8
	...
  6a:	0000                	unimp
  6c:	0e44                	addi	s1,sp,788
  6e:	4430                	lw	a2,72(s0)
  70:	0188                	addi	a0,sp,192
  72:	0c44                	addi	s1,sp,532
  74:	0008                	0x8
  76:	0002                	c.slli64	zero
  78:	44c8                	lw	a0,12(s1)
  7a:	020d                	addi	tp,tp,3
  7c:	001c                	0x1c
  7e:	0000                	unimp
  80:	002c                	addi	a1,sp,8
  82:	0000                	unimp
  84:	0248                	addi	a0,sp,260
  86:	0000                	unimp
  88:	0034                	addi	a3,sp,8
  8a:	0000                	unimp
  8c:	0e44                	addi	s1,sp,788
  8e:	4410                	lw	a2,8(s0)
  90:	0188                	addi	a0,sp,192
  92:	0c44                	addi	s1,sp,532
  94:	0008                	0x8
  96:	c860                	sw	s0,84(s0)
  98:	0d44                	addi	s1,sp,660
  9a:	0002                	c.slli64	zero
  9c:	000c                	0xc
  9e:	0000                	unimp
  a0:	ffff                	0xffff
  a2:	ffff                	0xffff
  a4:	0001                	nop
  a6:	7c01                	lui	s8,0xfffe0
  a8:	0d01                	addi	s10,s10,0
  aa:	0002                	c.slli64	zero
  ac:	0020                	addi	s0,sp,8
  ae:	0000                	unimp
  b0:	009c                	addi	a5,sp,64
  b2:	0000                	unimp
  b4:	027c                	addi	a5,sp,268
  b6:	0000                	unimp
  b8:	0080                	addi	s0,sp,64
  ba:	0000                	unimp
  bc:	0e44                	addi	s1,sp,788
  be:	4820                	lw	s0,80(s0)
  c0:	0181                	addi	gp,gp,0
  c2:	0288                	addi	a0,sp,320
  c4:	0c44                	addi	s1,sp,532
  c6:	0008                	0x8
  c8:	6402                	flw	fs0,0(sp)
  ca:	44c1                	li	s1,16
  cc:	44c8                	lw	a0,12(s1)
  ce:	020d                	addi	tp,tp,3
  d0:	0020                	addi	s0,sp,8
  d2:	0000                	unimp
  d4:	009c                	addi	a5,sp,64
  d6:	0000                	unimp
  d8:	02fc                	addi	a5,sp,332
  da:	0000                	unimp
  dc:	0050                	addi	a2,sp,4
  de:	0000                	unimp
  e0:	0e44                	addi	s1,sp,788
  e2:	4820                	lw	s0,80(s0)
  e4:	0181                	addi	gp,gp,0
  e6:	0288                	addi	a0,sp,320
  e8:	0c44                	addi	s1,sp,532
  ea:	0008                	0x8
  ec:	c174                	sw	a3,68(a0)
  ee:	c844                	sw	s1,20(s0)
  f0:	0d44                	addi	s1,sp,660
  f2:	0002                	c.slli64	zero
  f4:	0024                	addi	s1,sp,8
  f6:	0000                	unimp
  f8:	009c                	addi	a5,sp,64
  fa:	0000                	unimp
  fc:	034c                	addi	a1,sp,388
  fe:	0000                	unimp
 100:	0498                	addi	a4,sp,576
 102:	0000                	unimp
 104:	0e44                	addi	s1,sp,788
 106:	4850                	lw	a2,20(s0)
 108:	0181                	addi	gp,gp,0
 10a:	0288                	addi	a0,sp,320
 10c:	0c44                	addi	s1,sp,532
 10e:	0008                	0x8
 110:	c1047c03          	0xc1047c03
 114:	c844                	sw	s1,20(s0)
 116:	0d44                	addi	s1,sp,660
 118:	0002                	c.slli64	zero
 11a:	0000                	unimp
 11c:	0024                	addi	s1,sp,8
 11e:	0000                	unimp
 120:	009c                	addi	a5,sp,64
 122:	0000                	unimp
 124:	07e4                	addi	s1,sp,972
 126:	0000                	unimp
 128:	0060                	addi	s0,sp,12
 12a:	0000                	unimp
 12c:	0e44                	addi	s1,sp,788
 12e:	4850                	lw	a2,20(s0)
 130:	0981                	addi	s3,s3,0
 132:	0a88                	addi	a0,sp,336
 134:	0c44                	addi	s1,sp,532
 136:	2008                	fld	fa0,0(s0)
 138:	4402                	lw	s0,0(sp)
 13a:	44c1                	li	s1,16
 13c:	44c8                	lw	a0,12(s1)
 13e:	020c                	addi	a1,sp,256
 140:	0000                	unimp
 142:	0000                	unimp
 144:	000c                	0xc
 146:	0000                	unimp
 148:	ffff                	0xffff
 14a:	ffff                	0xffff
 14c:	0001                	nop
 14e:	7c01                	lui	s8,0xfffe0
 150:	0d01                	addi	s10,s10,0
 152:	0002                	c.slli64	zero
 154:	001c                	0x1c
 156:	0000                	unimp
 158:	0144                	addi	s1,sp,132
 15a:	0000                	unimp
 15c:	0844                	addi	s1,sp,20
 15e:	0000                	unimp
 160:	0024                	addi	s1,sp,8
 162:	0000                	unimp
 164:	0e44                	addi	s1,sp,788
 166:	4420                	lw	s0,72(s0)
 168:	0188                	addi	a0,sp,192
 16a:	0c44                	addi	s1,sp,532
 16c:	0008                	0x8
 16e:	c850                	sw	a2,20(s0)
 170:	0d44                	addi	s1,sp,660
 172:	0002                	c.slli64	zero
 174:	000c                	0xc
 176:	0000                	unimp
 178:	ffff                	0xffff
 17a:	ffff                	0xffff
 17c:	0001                	nop
 17e:	7c01                	lui	s8,0xfffe0
 180:	0d01                	addi	s10,s10,0
 182:	0002                	c.slli64	zero
 184:	001c                	0x1c
 186:	0000                	unimp
 188:	0174                	addi	a3,sp,140
 18a:	0000                	unimp
 18c:	0868                	addi	a0,sp,28
 18e:	0000                	unimp
 190:	0034                	addi	a3,sp,8
 192:	0000                	unimp
 194:	0e44                	addi	s1,sp,788
 196:	4420                	lw	s0,72(s0)
 198:	0188                	addi	a0,sp,192
 19a:	0c44                	addi	s1,sp,532
 19c:	0008                	0x8
 19e:	c860                	sw	s0,84(s0)
 1a0:	0d44                	addi	s1,sp,660
 1a2:	0002                	c.slli64	zero
 1a4:	001c                	0x1c
 1a6:	0000                	unimp
 1a8:	0174                	addi	a3,sp,140
 1aa:	0000                	unimp
 1ac:	089c                	addi	a5,sp,80
 1ae:	0000                	unimp
 1b0:	00a8                	addi	a0,sp,72
 1b2:	0000                	unimp
 1b4:	0e44                	addi	s1,sp,788
 1b6:	4430                	lw	a2,72(s0)
 1b8:	0188                	addi	a0,sp,192
 1ba:	0c44                	addi	s1,sp,532
 1bc:	0008                	0x8
 1be:	9402                	jalr	s0
 1c0:	44c8                	lw	a0,12(s1)
 1c2:	020d                	addi	tp,tp,3
 1c4:	001c                	0x1c
 1c6:	0000                	unimp
 1c8:	0174                	addi	a3,sp,140
 1ca:	0000                	unimp
 1cc:	0944                	addi	s1,sp,148
 1ce:	0000                	unimp
 1d0:	00ac                	addi	a1,sp,72
 1d2:	0000                	unimp
 1d4:	0e44                	addi	s1,sp,788
 1d6:	4430                	lw	a2,72(s0)
 1d8:	0188                	addi	a0,sp,192
 1da:	0c44                	addi	s1,sp,532
 1dc:	0008                	0x8
 1de:	9802                	jalr	a6
 1e0:	44c8                	lw	a0,12(s1)
 1e2:	020d                	addi	tp,tp,3
 1e4:	000c                	0xc
 1e6:	0000                	unimp
 1e8:	ffff                	0xffff
 1ea:	ffff                	0xffff
 1ec:	0001                	nop
 1ee:	7c01                	lui	s8,0xfffe0
 1f0:	0d01                	addi	s10,s10,0
 1f2:	0002                	c.slli64	zero
 1f4:	001c                	0x1c
 1f6:	0000                	unimp
 1f8:	01e4                	addi	s1,sp,204
 1fa:	0000                	unimp
 1fc:	09f0                	addi	a2,sp,220
 1fe:	0000                	unimp
 200:	0028                	addi	a0,sp,8
 202:	0000                	unimp
 204:	0e44                	addi	s1,sp,788
 206:	4410                	lw	a2,8(s0)
 208:	0188                	addi	a0,sp,192
 20a:	0c44                	addi	s1,sp,532
 20c:	0008                	0x8
 20e:	c854                	sw	a3,20(s0)
 210:	0d44                	addi	s1,sp,660
 212:	0002                	c.slli64	zero
 214:	001c                	0x1c
 216:	0000                	unimp
 218:	01e4                	addi	s1,sp,204
 21a:	0000                	unimp
 21c:	0a18                	addi	a4,sp,272
 21e:	0000                	unimp
 220:	002c                	addi	a1,sp,8
 222:	0000                	unimp
 224:	0e44                	addi	s1,sp,788
 226:	4410                	lw	a2,8(s0)
 228:	0188                	addi	a0,sp,192
 22a:	0c44                	addi	s1,sp,532
 22c:	0008                	0x8
 22e:	c858                	sw	a4,20(s0)
 230:	0d44                	addi	s1,sp,660
 232:	0002                	c.slli64	zero
 234:	0020                	addi	s0,sp,8
 236:	0000                	unimp
 238:	01e4                	addi	s1,sp,204
 23a:	0000                	unimp
 23c:	0a44                	addi	s1,sp,276
 23e:	0000                	unimp
 240:	003c                	addi	a5,sp,8
 242:	0000                	unimp
 244:	0e44                	addi	s1,sp,788
 246:	4820                	lw	s0,80(s0)
 248:	0181                	addi	gp,gp,0
 24a:	0288                	addi	a0,sp,320
 24c:	0c44                	addi	s1,sp,532
 24e:	0008                	0x8
 250:	c160                	sw	s0,68(a0)
 252:	c844                	sw	s1,20(s0)
 254:	0d44                	addi	s1,sp,660
 256:	0002                	c.slli64	zero
 258:	001c                	0x1c
 25a:	0000                	unimp
 25c:	01e4                	addi	s1,sp,204
 25e:	0000                	unimp
 260:	0a80                	addi	s0,sp,336
 262:	0000                	unimp
 264:	0028                	addi	a0,sp,8
 266:	0000                	unimp
 268:	0e44                	addi	s1,sp,788
 26a:	4410                	lw	a2,8(s0)
 26c:	0188                	addi	a0,sp,192
 26e:	0c44                	addi	s1,sp,532
 270:	0008                	0x8
 272:	c854                	sw	a3,20(s0)
 274:	0d44                	addi	s1,sp,660
 276:	0002                	c.slli64	zero
 278:	0024                	addi	s1,sp,8
 27a:	0000                	unimp
 27c:	01e4                	addi	s1,sp,204
 27e:	0000                	unimp
 280:	0aa8                	addi	a0,sp,344
 282:	0000                	unimp
 284:	0060                	addi	s0,sp,12
 286:	0000                	unimp
 288:	0e44                	addi	s1,sp,788
 28a:	4c10                	lw	a2,24(s0)
 28c:	0181                	addi	gp,gp,0
 28e:	0288                	addi	a0,sp,320
 290:	0389                	addi	t2,t2,2
 292:	0c44                	addi	s1,sp,532
 294:	0008                	0x8
 296:	3c02                	fld	fs8,32(sp)
 298:	44c1                	li	s1,16
 29a:	44c8                	lw	a0,12(s1)
 29c:	44c9                	li	s1,18
 29e:	020d                	addi	tp,tp,3
 2a0:	000c                	0xc
 2a2:	0000                	unimp
 2a4:	ffff                	0xffff
 2a6:	ffff                	0xffff
 2a8:	0001                	nop
 2aa:	7c01                	lui	s8,0xfffe0
 2ac:	0d01                	addi	s10,s10,0
 2ae:	0002                	c.slli64	zero
 2b0:	001c                	0x1c
 2b2:	0000                	unimp
 2b4:	02a0                	addi	s0,sp,328
 2b6:	0000                	unimp
 2b8:	0b08                	addi	a0,sp,400
 2ba:	0000                	unimp
 2bc:	0044                	addi	s1,sp,4
 2be:	0000                	unimp
 2c0:	0e44                	addi	s1,sp,788
 2c2:	4410                	lw	a2,8(s0)
 2c4:	0188                	addi	a0,sp,192
 2c6:	0c44                	addi	s1,sp,532
 2c8:	0008                	0x8
 2ca:	c870                	sw	a2,84(s0)
 2cc:	0d44                	addi	s1,sp,660
 2ce:	0002                	c.slli64	zero
 2d0:	0020                	addi	s0,sp,8
 2d2:	0000                	unimp
 2d4:	02a0                	addi	s0,sp,328
 2d6:	0000                	unimp
 2d8:	0b4c                	addi	a1,sp,404
 2da:	0000                	unimp
 2dc:	0048                	addi	a0,sp,4
 2de:	0000                	unimp
 2e0:	0e44                	addi	s1,sp,788
 2e2:	4810                	lw	a2,16(s0)
 2e4:	0181                	addi	gp,gp,0
 2e6:	0288                	addi	a0,sp,320
 2e8:	0c44                	addi	s1,sp,532
 2ea:	0008                	0x8
 2ec:	c16c                	sw	a1,68(a0)
 2ee:	c844                	sw	s1,20(s0)
 2f0:	0d44                	addi	s1,sp,660
 2f2:	0002                	c.slli64	zero
 2f4:	000c                	0xc
 2f6:	0000                	unimp
 2f8:	ffff                	0xffff
 2fa:	ffff                	0xffff
 2fc:	0001                	nop
 2fe:	7c01                	lui	s8,0xfffe0
 300:	0d01                	addi	s10,s10,0
 302:	0002                	c.slli64	zero
 304:	0020                	addi	s0,sp,8
 306:	0000                	unimp
 308:	02f4                	addi	a3,sp,332
 30a:	0000                	unimp
 30c:	0b94                	addi	a3,sp,464
 30e:	0000                	unimp
 310:	0094                	addi	a3,sp,64
 312:	0000                	unimp
 314:	0e44                	addi	s1,sp,788
 316:	4820                	lw	s0,80(s0)
 318:	0181                	addi	gp,gp,0
 31a:	0288                	addi	a0,sp,320
 31c:	0c44                	addi	s1,sp,532
 31e:	0008                	0x8
 320:	7802                	flw	fa6,32(sp)
 322:	44c1                	li	s1,16
 324:	44c8                	lw	a0,12(s1)
 326:	020d                	addi	tp,tp,3
 328:	0020                	addi	s0,sp,8
 32a:	0000                	unimp
 32c:	02f4                	addi	a3,sp,332
 32e:	0000                	unimp
 330:	0c28                	addi	a0,sp,536
 332:	0000                	unimp
 334:	0030                	addi	a2,sp,8
 336:	0000                	unimp
 338:	0e44                	addi	s1,sp,788
 33a:	4810                	lw	a2,16(s0)
 33c:	0181                	addi	gp,gp,0
 33e:	0288                	addi	a0,sp,320
 340:	0c44                	addi	s1,sp,532
 342:	0008                	0x8
 344:	c154                	sw	a3,4(a0)
 346:	c844                	sw	s1,20(s0)
 348:	0d44                	addi	s1,sp,660
 34a:	0002                	c.slli64	zero
 34c:	0020                	addi	s0,sp,8
 34e:	0000                	unimp
 350:	02f4                	addi	a3,sp,332
 352:	0000                	unimp
 354:	0c58                	addi	a4,sp,532
 356:	0000                	unimp
 358:	0054                	addi	a3,sp,4
 35a:	0000                	unimp
 35c:	0e44                	addi	s1,sp,788
 35e:	4810                	lw	a2,16(s0)
 360:	0181                	addi	gp,gp,0
 362:	0288                	addi	a0,sp,320
 364:	0c44                	addi	s1,sp,532
 366:	0008                	0x8
 368:	3802                	fld	fa6,32(sp)
 36a:	44c1                	li	s1,16
 36c:	44c8                	lw	a0,12(s1)
 36e:	020d                	addi	tp,tp,3
 370:	0028                	addi	a0,sp,8
 372:	0000                	unimp
 374:	02f4                	addi	a3,sp,332
 376:	0000                	unimp
 378:	0cac                	addi	a1,sp,600
 37a:	0000                	unimp
 37c:	0134                	addi	a3,sp,136
 37e:	0000                	unimp
 380:	0e44                	addi	s1,sp,788
 382:	4c20                	lw	s0,88(s0)
 384:	0181                	addi	gp,gp,0
 386:	0288                	addi	a0,sp,320
 388:	0389                	addi	t2,t2,2
 38a:	0c44                	addi	s1,sp,532
 38c:	0008                	0x8
 38e:	c1011003          	lh	zero,-1008(sp) # 10010dba <__freertos_irq_stack_top+0xf00cdba>
 392:	c844                	sw	s1,20(s0)
 394:	c944                	sw	s1,20(a0)
 396:	0d44                	addi	s1,sp,660
 398:	0002                	c.slli64	zero
 39a:	0000                	unimp
 39c:	0028                	addi	a0,sp,8
 39e:	0000                	unimp
 3a0:	02f4                	addi	a3,sp,332
 3a2:	0000                	unimp
 3a4:	0de0                	addi	s0,sp,732
 3a6:	0000                	unimp
 3a8:	0134                	addi	a3,sp,136
 3aa:	0000                	unimp
 3ac:	0e44                	addi	s1,sp,788
 3ae:	4c20                	lw	s0,88(s0)
 3b0:	0181                	addi	gp,gp,0
 3b2:	0288                	addi	a0,sp,320
 3b4:	0389                	addi	t2,t2,2
 3b6:	0c44                	addi	s1,sp,532
 3b8:	0008                	0x8
 3ba:	c1011003          	lh	zero,-1008(sp)
 3be:	c844                	sw	s1,20(s0)
 3c0:	c944                	sw	s1,20(a0)
 3c2:	0d44                	addi	s1,sp,660
 3c4:	0002                	c.slli64	zero
 3c6:	0000                	unimp
 3c8:	0028                	addi	a0,sp,8
 3ca:	0000                	unimp
 3cc:	02f4                	addi	a3,sp,332
 3ce:	0000                	unimp
 3d0:	0f14                	addi	a3,sp,912
 3d2:	0000                	unimp
 3d4:	0134                	addi	a3,sp,136
 3d6:	0000                	unimp
 3d8:	0e44                	addi	s1,sp,788
 3da:	4c20                	lw	s0,88(s0)
 3dc:	0181                	addi	gp,gp,0
 3de:	0288                	addi	a0,sp,320
 3e0:	0389                	addi	t2,t2,2
 3e2:	0c44                	addi	s1,sp,532
 3e4:	0008                	0x8
 3e6:	c1011003          	lh	zero,-1008(sp)
 3ea:	c844                	sw	s1,20(s0)
 3ec:	c944                	sw	s1,20(a0)
 3ee:	0d44                	addi	s1,sp,660
 3f0:	0002                	c.slli64	zero
 3f2:	0000                	unimp
 3f4:	0024                	addi	s1,sp,8
 3f6:	0000                	unimp
 3f8:	02f4                	addi	a3,sp,332
 3fa:	0000                	unimp
 3fc:	1048                	addi	a0,sp,36
 3fe:	0000                	unimp
 400:	034c                	addi	a1,sp,388
 402:	0000                	unimp
 404:	0e44                	addi	s1,sp,788
 406:	4830                	lw	a2,80(s0)
 408:	0181                	addi	gp,gp,0
 40a:	0288                	addi	a0,sp,320
 40c:	0c44                	addi	s1,sp,532
 40e:	0008                	0x8
 410:	c1033003          	0xc1033003
 414:	c844                	sw	s1,20(s0)
 416:	0d44                	addi	s1,sp,660
 418:	0002                	c.slli64	zero
 41a:	0000                	unimp
 41c:	0020                	addi	s0,sp,8
 41e:	0000                	unimp
 420:	02f4                	addi	a3,sp,332
 422:	0000                	unimp
 424:	1394                	addi	a3,sp,480
 426:	0000                	unimp
 428:	00f0                	addi	a2,sp,76
 42a:	0000                	unimp
 42c:	0e44                	addi	s1,sp,788
 42e:	4830                	lw	a2,80(s0)
 430:	0181                	addi	gp,gp,0
 432:	0288                	addi	a0,sp,320
 434:	0c44                	addi	s1,sp,532
 436:	0008                	0x8
 438:	d402                	sw	zero,40(sp)
 43a:	44c1                	li	s1,16
 43c:	44c8                	lw	a0,12(s1)
 43e:	020d                	addi	tp,tp,3
